# RISC-V Disassembly (base=0x80000000, 1922 instructions)
# Source: irom_slot0.coe + irom_slot1.coe (interleaved, slot0=961, slot1=961)
# ======================================================================

80000000:	00121117          	auipc	sp,0x121
80000004:	04810113          	addi	sp,sp,72 # 0x80121048
80000008:	7a9000ef          	jal	0x80000fb0
8000000c:	3b0000ef          	jal	0x800003bc
80000010:	0000006f          	j	0x80000010
80000014:	ff010113          	addi	sp,sp,-16
80000018:	00112623          	sw	ra,12(sp)
8000001c:	00812423          	sw	s0,8(sp)
80000020:	01010413          	addi	s0,sp,16
80000024:	802007b7          	lui	a5,0x80200
80000028:	0007a783          	lw	a5,0(a5) # 0x80200000
8000002c:	00078513          	mv	a0,a5
80000030:	00c12083          	lw	ra,12(sp)
80000034:	00812403          	lw	s0,8(sp)
80000038:	01010113          	addi	sp,sp,16
8000003c:	00008067          	ret
80000040:	ff010113          	addi	sp,sp,-16
80000044:	00112623          	sw	ra,12(sp)
80000048:	00812423          	sw	s0,8(sp)
8000004c:	01010413          	addi	s0,sp,16
80000050:	802007b7          	lui	a5,0x80200
80000054:	00478793          	addi	a5,a5,4 # 0x80200004
80000058:	0007a783          	lw	a5,0(a5)
8000005c:	00078513          	mv	a0,a5
80000060:	00c12083          	lw	ra,12(sp)
80000064:	00812403          	lw	s0,8(sp)
80000068:	01010113          	addi	sp,sp,16
8000006c:	00008067          	ret
80000070:	fd010113          	addi	sp,sp,-48
80000074:	02112623          	sw	ra,44(sp)
80000078:	02812423          	sw	s0,40(sp)
8000007c:	03010413          	addi	s0,sp,48
80000080:	fca42e23          	sw	a0,-36(s0)
80000084:	fe042623          	sw	zero,-20(s0)
80000088:	fe042423          	sw	zero,-24(s0)
8000008c:	0580006f          	j	0x800000e4
80000090:	fdc42783          	lw	a5,-36(s0)
80000094:	00a00593          	li	a1,10
80000098:	00078513          	mv	a0,a5
8000009c:	4e5010ef          	jal	0x80001d80
800000a0:	00050793          	mv	a5,a0
800000a4:	fef42223          	sw	a5,-28(s0)
800000a8:	fe842783          	lw	a5,-24(s0)
800000ac:	fe442703          	lw	a4,-28(s0)
800000b0:	00f717b3          	sll	a5,a4,a5
800000b4:	fec42703          	lw	a4,-20(s0)
800000b8:	00f767b3          	or	a5,a4,a5
800000bc:	fef42623          	sw	a5,-20(s0)
800000c0:	fdc42783          	lw	a5,-36(s0)
800000c4:	00a00593          	li	a1,10
800000c8:	00078513          	mv	a0,a5
800000cc:	46d010ef          	jal	0x80001d38
800000d0:	00050793          	mv	a5,a0
800000d4:	fcf42e23          	sw	a5,-36(s0)
800000d8:	fe842783          	lw	a5,-24(s0)
800000dc:	00478793          	addi	a5,a5,4
800000e0:	fef42423          	sw	a5,-24(s0)
800000e4:	fdc42783          	lw	a5,-36(s0)
800000e8:	fa0794e3          	bnez	a5,0x80000090
800000ec:	fec42783          	lw	a5,-20(s0)
800000f0:	00078513          	mv	a0,a5
800000f4:	02c12083          	lw	ra,44(sp)
800000f8:	02812403          	lw	s0,40(sp)
800000fc:	03010113          	addi	sp,sp,48
80000100:	00008067          	ret
80000104:	fe010113          	addi	sp,sp,-32
80000108:	00112e23          	sw	ra,28(sp)
8000010c:	00812c23          	sw	s0,24(sp)
80000110:	02010413          	addi	s0,sp,32
80000114:	801007b7          	lui	a5,0x80100
80000118:	0007a783          	lw	a5,0(a5) # 0x80100000
8000011c:	00078513          	mv	a0,a5
80000120:	f51ff0ef          	jal	0x80000070
80000124:	00050793          	mv	a5,a0
80000128:	0ff7f793          	zext.b	a5,a5
8000012c:	fef42623          	sw	a5,-20(s0)
80000130:	802007b7          	lui	a5,0x80200
80000134:	02078793          	addi	a5,a5,32 # 0x80200020
80000138:	fec42703          	lw	a4,-20(s0)
8000013c:	01871713          	slli	a4,a4,0x18
80000140:	00e7a023          	sw	a4,0(a5)
80000144:	00000013          	nop
80000148:	01c12083          	lw	ra,28(sp)
8000014c:	01812403          	lw	s0,24(sp)
80000150:	02010113          	addi	sp,sp,32
80000154:	00008067          	ret
80000158:	fd010113          	addi	sp,sp,-48
8000015c:	02112623          	sw	ra,44(sp)
80000160:	02812423          	sw	s0,40(sp)
80000164:	03010413          	addi	s0,sp,48
80000168:	fca42e23          	sw	a0,-36(s0)
8000016c:	fdc42503          	lw	a0,-36(s0)
80000170:	f01ff0ef          	jal	0x80000070
80000174:	00050713          	mv	a4,a0
80000178:	010007b7          	lui	a5,0x1000
8000017c:	fff78793          	addi	a5,a5,-1 # 0xffffff
80000180:	00f777b3          	and	a5,a4,a5
80000184:	fef42623          	sw	a5,-20(s0)
80000188:	802007b7          	lui	a5,0x80200
8000018c:	02078793          	addi	a5,a5,32 # 0x80200020
80000190:	0007a683          	lw	a3,0(a5)
80000194:	802007b7          	lui	a5,0x80200
80000198:	02078793          	addi	a5,a5,32 # 0x80200020
8000019c:	fec42703          	lw	a4,-20(s0)
800001a0:	00e6e733          	or	a4,a3,a4
800001a4:	00e7a023          	sw	a4,0(a5)
800001a8:	00000013          	nop
800001ac:	02c12083          	lw	ra,44(sp)
800001b0:	02812403          	lw	s0,40(sp)
800001b4:	03010113          	addi	sp,sp,48
800001b8:	00008067          	ret
800001bc:	fe010113          	addi	sp,sp,-32
800001c0:	00112e23          	sw	ra,28(sp)
800001c4:	00812c23          	sw	s0,24(sp)
800001c8:	02010413          	addi	s0,sp,32
800001cc:	fea42623          	sw	a0,-20(s0)
800001d0:	802007b7          	lui	a5,0x80200
800001d4:	04078793          	addi	a5,a5,64 # 0x80200040
800001d8:	fec42703          	lw	a4,-20(s0)
800001dc:	00e7a023          	sw	a4,0(a5)
800001e0:	00000013          	nop
800001e4:	01c12083          	lw	ra,28(sp)
800001e8:	01812403          	lw	s0,24(sp)
800001ec:	02010113          	addi	sp,sp,32
800001f0:	00008067          	ret
800001f4:	fe010113          	addi	sp,sp,-32
800001f8:	00112e23          	sw	ra,28(sp)
800001fc:	00812c23          	sw	s0,24(sp)
80000200:	02010413          	addi	s0,sp,32
80000204:	fea42623          	sw	a0,-20(s0)
80000208:	801007b7          	lui	a5,0x80100
8000020c:	0307a703          	lw	a4,48(a5) # 0x80100030
80000210:	fec42783          	lw	a5,-20(s0)
80000214:	00f76733          	or	a4,a4,a5
80000218:	801007b7          	lui	a5,0x80100
8000021c:	02e7a823          	sw	a4,48(a5) # 0x80100030
80000220:	801007b7          	lui	a5,0x80100
80000224:	0307a783          	lw	a5,48(a5) # 0x80100030
80000228:	00078513          	mv	a0,a5
8000022c:	f91ff0ef          	jal	0x800001bc
80000230:	00000013          	nop
80000234:	01c12083          	lw	ra,28(sp)
80000238:	01812403          	lw	s0,24(sp)
8000023c:	02010113          	addi	sp,sp,32
80000240:	00008067          	ret
80000244:	fe010113          	addi	sp,sp,-32
80000248:	00112e23          	sw	ra,28(sp)
8000024c:	00812c23          	sw	s0,24(sp)
80000250:	02010413          	addi	s0,sp,32
80000254:	048877b7          	lui	a5,0x4887
80000258:	02078713          	addi	a4,a5,32 # 0x4887020
8000025c:	801007b7          	lui	a5,0x80100
80000260:	0307a783          	lw	a5,48(a5) # 0x80100030
80000264:	00f767b3          	or	a5,a4,a5
80000268:	fef42623          	sw	a5,-20(s0)
8000026c:	fec42503          	lw	a0,-20(s0)
80000270:	f4dff0ef          	jal	0x800001bc
80000274:	00000013          	nop
80000278:	01c12083          	lw	ra,28(sp)
8000027c:	01812403          	lw	s0,24(sp)
80000280:	02010113          	addi	sp,sp,32
80000284:	00008067          	ret
80000288:	fe010113          	addi	sp,sp,-32
8000028c:	00112e23          	sw	ra,28(sp)
80000290:	00812c23          	sw	s0,24(sp)
80000294:	02010413          	addi	s0,sp,32
80000298:	906067b7          	lui	a5,0x90606
8000029c:	09078713          	addi	a4,a5,144 # 0x90606090
800002a0:	801007b7          	lui	a5,0x80100
800002a4:	0307a783          	lw	a5,48(a5) # 0x80100030
800002a8:	00f767b3          	or	a5,a4,a5
800002ac:	fef42623          	sw	a5,-20(s0)
800002b0:	fec42503          	lw	a0,-20(s0)
800002b4:	f09ff0ef          	jal	0x800001bc
800002b8:	00000013          	nop
800002bc:	01c12083          	lw	ra,28(sp)
800002c0:	01812403          	lw	s0,24(sp)
800002c4:	02010113          	addi	sp,sp,32
800002c8:	00008067          	ret
800002cc:	ff010113          	addi	sp,sp,-16
800002d0:	00112623          	sw	ra,12(sp)
800002d4:	00812423          	sw	s0,8(sp)
800002d8:	01010413          	addi	s0,sp,16
800002dc:	802007b7          	lui	a5,0x80200
800002e0:	05078793          	addi	a5,a5,80 # 0x80200050
800002e4:	80000737          	lui	a4,0x80000
800002e8:	00e7a023          	sw	a4,0(a5)
800002ec:	00000013          	nop
800002f0:	00c12083          	lw	ra,12(sp)
800002f4:	00812403          	lw	s0,8(sp)
800002f8:	01010113          	addi	sp,sp,16
800002fc:	00008067          	ret
80000300:	ff010113          	addi	sp,sp,-16
80000304:	00112623          	sw	ra,12(sp)
80000308:	00812423          	sw	s0,8(sp)
8000030c:	01010413          	addi	s0,sp,16
80000310:	802007b7          	lui	a5,0x80200
80000314:	05078793          	addi	a5,a5,80 # 0x80200050
80000318:	fff00713          	li	a4,-1
8000031c:	00e7a023          	sw	a4,0(a5)
80000320:	00000013          	nop
80000324:	00c12083          	lw	ra,12(sp)
80000328:	00812403          	lw	s0,8(sp)
8000032c:	01010113          	addi	sp,sp,16
80000330:	00008067          	ret
80000334:	ff010113          	addi	sp,sp,-16
80000338:	00112623          	sw	ra,12(sp)
8000033c:	00812423          	sw	s0,8(sp)
80000340:	01010413          	addi	s0,sp,16
80000344:	802007b7          	lui	a5,0x80200
80000348:	05078793          	addi	a5,a5,80 # 0x80200050
8000034c:	0007a783          	lw	a5,0(a5)
80000350:	00078513          	mv	a0,a5
80000354:	00c12083          	lw	ra,12(sp)
80000358:	00812403          	lw	s0,8(sp)
8000035c:	01010113          	addi	sp,sp,16
80000360:	00008067          	ret
80000364:	fe010113          	addi	sp,sp,-32
80000368:	00112e23          	sw	ra,28(sp)
8000036c:	00812c23          	sw	s0,24(sp)
80000370:	02010413          	addi	s0,sp,32
80000374:	fea42623          	sw	a0,-20(s0)
80000378:	f89ff0ef          	jal	0x80000300
8000037c:	fb9ff0ef          	jal	0x80000334
80000380:	00050793          	mv	a5,a0
80000384:	00078513          	mv	a0,a5
80000388:	dd1ff0ef          	jal	0x80000158
8000038c:	fec42783          	lw	a5,-20(s0)
80000390:	00078863          	beqz	a5,0x800003a0
80000394:	eb1ff0ef          	jal	0x80000244
80000398:	00100f93          	li	t6,1
8000039c:	00c0006f          	j	0x800003a8
800003a0:	ee9ff0ef          	jal	0x80000288
800003a4:	00000f93          	li	t6,0
800003a8:	00000013          	nop
800003ac:	01c12083          	lw	ra,28(sp)
800003b0:	01812403          	lw	s0,24(sp)
800003b4:	02010113          	addi	sp,sp,32
800003b8:	00008067          	ret
800003bc:	fe010113          	addi	sp,sp,-32
800003c0:	00112e23          	sw	ra,28(sp)
800003c4:	00812c23          	sw	s0,24(sp)
800003c8:	02010413          	addi	s0,sp,32
800003cc:	00100793          	li	a5,1
800003d0:	fef42623          	sw	a5,-20(s0)
800003d4:	801007b7          	lui	a5,0x80100
800003d8:	0007a703          	lw	a4,0(a5) # 0x80100000
800003dc:	02500793          	li	a5,37
800003e0:	00f71863          	bne	a4,a5,0x800003f0
800003e4:	00100513          	li	a0,1
800003e8:	e0dff0ef          	jal	0x800001f4
800003ec:	0080006f          	j	0x800003f4
800003f0:	fe042623          	sw	zero,-20(s0)
800003f4:	d11ff0ef          	jal	0x80000104
800003f8:	ed5ff0ef          	jal	0x800002cc
800003fc:	160000ef          	jal	0x8000055c
80000400:	00050793          	mv	a5,a0
80000404:	00078863          	beqz	a5,0x80000414
80000408:	00200513          	li	a0,2
8000040c:	de9ff0ef          	jal	0x800001f4
80000410:	0080006f          	j	0x80000418
80000414:	fe042623          	sw	zero,-20(s0)
80000418:	199000ef          	jal	0x80000db0
8000041c:	00050793          	mv	a5,a0
80000420:	00078863          	beqz	a5,0x80000430
80000424:	10000513          	li	a0,256
80000428:	dcdff0ef          	jal	0x800001f4
8000042c:	0080006f          	j	0x80000434
80000430:	fe042623          	sw	zero,-20(s0)
80000434:	20000513          	li	a0,512
80000438:	dbdff0ef          	jal	0x800001f4
8000043c:	00010537          	lui	a0,0x10
80000440:	db5ff0ef          	jal	0x800001f4
80000444:	00020537          	lui	a0,0x20
80000448:	dadff0ef          	jal	0x800001f4
8000044c:	01000537          	lui	a0,0x1000
80000450:	da5ff0ef          	jal	0x800001f4
80000454:	02000537          	lui	a0,0x2000
80000458:	d9dff0ef          	jal	0x800001f4
8000045c:	fec42503          	lw	a0,-20(s0)
80000460:	f05ff0ef          	jal	0x80000364
80000464:	00000793          	li	a5,0
80000468:	00078513          	mv	a0,a5
8000046c:	01c12083          	lw	ra,28(sp)
80000470:	01812403          	lw	s0,24(sp)
80000474:	02010113          	addi	sp,sp,32
80000478:	00008067          	ret
8000047c:	ff010113          	addi	sp,sp,-16
80000480:	00112623          	sw	ra,12(sp)
80000484:	00812423          	sw	s0,8(sp)
80000488:	01010413          	addi	s0,sp,16
8000048c:	800017b7          	lui	a5,0x80001
80000490:	e8078793          	addi	a5,a5,-384 # 0x80000e80
80000494:	30579073          	csrw	mtvec,a5
80000498:	00000013          	nop
8000049c:	00c12083          	lw	ra,12(sp)
800004a0:	00812403          	lw	s0,8(sp)
800004a4:	01010113          	addi	sp,sp,16
800004a8:	00008067          	ret
800004ac:	fd010113          	addi	sp,sp,-48
800004b0:	02112623          	sw	ra,44(sp)
800004b4:	02812423          	sw	s0,40(sp)
800004b8:	03010413          	addi	s0,sp,48
800004bc:	fca42e23          	sw	a0,-36(s0)
800004c0:	305027f3          	csrr	a5,mtvec
800004c4:	fef42623          	sw	a5,-20(s0)
800004c8:	800017b7          	lui	a5,0x80001
800004cc:	e8078793          	addi	a5,a5,-384 # 0x80000e80
800004d0:	fec42703          	lw	a4,-20(s0)
800004d4:	00f71663          	bne	a4,a5,0x800004e0
800004d8:	00100793          	li	a5,1
800004dc:	0080006f          	j	0x800004e4
800004e0:	00000793          	li	a5,0
800004e4:	80119737          	lui	a4,0x80119
800004e8:	02f72a23          	sw	a5,52(a4) # 0x80119034
800004ec:	fdc42783          	lw	a5,-36(s0)
800004f0:	0807a703          	lw	a4,128(a5)
800004f4:	801197b7          	lui	a5,0x80119
800004f8:	02e7ac23          	sw	a4,56(a5) # 0x80119038
800004fc:	fdc42783          	lw	a5,-36(s0)
80000500:	0887a703          	lw	a4,136(a5)
80000504:	801197b7          	lui	a5,0x80119
80000508:	02e7ae23          	sw	a4,60(a5) # 0x8011903c
8000050c:	801197b7          	lui	a5,0x80119
80000510:	0447a783          	lw	a5,68(a5) # 0x80119044
80000514:	00178713          	addi	a4,a5,1
80000518:	801197b7          	lui	a5,0x80119
8000051c:	04e7a223          	sw	a4,68(a5) # 0x80119044
80000520:	fdc42783          	lw	a5,-36(s0)
80000524:	0887a783          	lw	a5,136(a5)
80000528:	00478713          	addi	a4,a5,4
8000052c:	fdc42783          	lw	a5,-36(s0)
80000530:	08e7a423          	sw	a4,136(a5)
80000534:	fdc42783          	lw	a5,-36(s0)
80000538:	0887a703          	lw	a4,136(a5)
8000053c:	801197b7          	lui	a5,0x80119
80000540:	04e7a023          	sw	a4,64(a5) # 0x80119040
80000544:	fdc42783          	lw	a5,-36(s0)
80000548:	00078513          	mv	a0,a5
8000054c:	02c12083          	lw	ra,44(sp)
80000550:	02812403          	lw	s0,40(sp)
80000554:	03010113          	addi	sp,sp,48
80000558:	00008067          	ret
8000055c:	f9010113          	addi	sp,sp,-112
80000560:	06112623          	sw	ra,108(sp)
80000564:	06812423          	sw	s0,104(sp)
80000568:	06912223          	sw	s1,100(sp)
8000056c:	07212023          	sw	s2,96(sp)
80000570:	07010413          	addi	s0,sp,112
80000574:	00b00793          	li	a5,11
80000578:	fef42623          	sw	a5,-20(s0)
8000057c:	1357a7b7          	lui	a5,0x1357a
80000580:	bdf78793          	addi	a5,a5,-1057 # 0x13579bdf
80000584:	fef42423          	sw	a5,-24(s0)
80000588:	2468b7b7          	lui	a5,0x2468b
8000058c:	ce078793          	addi	a5,a5,-800 # 0x2468ace0
80000590:	fef42223          	sw	a5,-28(s0)
80000594:	123457b7          	lui	a5,0x12345
80000598:	67878793          	addi	a5,a5,1656 # 0x12345678
8000059c:	fef42023          	sw	a5,-32(s0)
800005a0:	0000f7b7          	lui	a5,0xf
800005a4:	00f78793          	addi	a5,a5,15 # 0xf00f
800005a8:	fcf42e23          	sw	a5,-36(s0)
800005ac:	003407b7          	lui	a5,0x340
800005b0:	00878793          	addi	a5,a5,8 # 0x340008
800005b4:	fcf42c23          	sw	a5,-40(s0)
800005b8:	fe042703          	lw	a4,-32(s0)
800005bc:	fdc42783          	lw	a5,-36(s0)
800005c0:	00f767b3          	or	a5,a4,a5
800005c4:	fcf42a23          	sw	a5,-44(s0)
800005c8:	fd842783          	lw	a5,-40(s0)
800005cc:	fff7c793          	not	a5,a5
800005d0:	fd442703          	lw	a4,-44(s0)
800005d4:	00f777b3          	and	a5,a4,a5
800005d8:	fcf42823          	sw	a5,-48(s0)
800005dc:	fc042623          	sw	zero,-52(s0)
800005e0:	fc042423          	sw	zero,-56(s0)
800005e4:	fc042223          	sw	zero,-60(s0)
800005e8:	fc042023          	sw	zero,-64(s0)
800005ec:	fa042e23          	sw	zero,-68(s0)
800005f0:	fa042c23          	sw	zero,-72(s0)
800005f4:	fa042a23          	sw	zero,-76(s0)
800005f8:	fa042823          	sw	zero,-80(s0)
800005fc:	fa042623          	sw	zero,-84(s0)
80000600:	fa042423          	sw	zero,-88(s0)
80000604:	fa042223          	sw	zero,-92(s0)
80000608:	fa042023          	sw	zero,-96(s0)
8000060c:	f8042e23          	sw	zero,-100(s0)
80000610:	f8042c23          	sw	zero,-104(s0)
80000614:	801197b7          	lui	a5,0x80119
80000618:	0207aa23          	sw	zero,52(a5) # 0x80119034
8000061c:	801197b7          	lui	a5,0x80119
80000620:	0207ac23          	sw	zero,56(a5) # 0x80119038
80000624:	801197b7          	lui	a5,0x80119
80000628:	0207ae23          	sw	zero,60(a5) # 0x8011903c
8000062c:	801197b7          	lui	a5,0x80119
80000630:	0407a023          	sw	zero,64(a5) # 0x80119040
80000634:	801197b7          	lui	a5,0x80119
80000638:	0407a223          	sw	zero,68(a5) # 0x80119044
8000063c:	e41ff0ef          	jal	0x8000047c
80000640:	305027f3          	csrr	a5,mtvec
80000644:	fcf42623          	sw	a5,-52(s0)
80000648:	340027f3          	csrr	a5,mscratch
8000064c:	faf42c23          	sw	a5,-72(s0)
80000650:	fe042783          	lw	a5,-32(s0)
80000654:	340797f3          	csrrw	a5,mscratch,a5
80000658:	faf42823          	sw	a5,-80(s0)
8000065c:	fdc42783          	lw	a5,-36(s0)
80000660:	3407a7f3          	csrrs	a5,mscratch,a5
80000664:	faf42623          	sw	a5,-84(s0)
80000668:	fd842783          	lw	a5,-40(s0)
8000066c:	3407b7f3          	csrrc	a5,mscratch,a5
80000670:	faf42423          	sw	a5,-88(s0)
80000674:	3402d7f3          	csrrwi	a5,mscratch,5
80000678:	faf42223          	sw	a5,-92(s0)
8000067c:	3401e7f3          	csrrsi	a5,mscratch,3
80000680:	faf42023          	sw	a5,-96(s0)
80000684:	3400f7f3          	csrrci	a5,mscratch,1
80000688:	f8f42e23          	sw	a5,-100(s0)
8000068c:	340027f3          	csrr	a5,mscratch
80000690:	f8f42c23          	sw	a5,-104(s0)
80000694:	fb842783          	lw	a5,-72(s0)
80000698:	34079073          	csrw	mscratch,a5
8000069c:	340027f3          	csrr	a5,mscratch
800006a0:	faf42a23          	sw	a5,-76(s0)
800006a4:	1357a4b7          	lui	s1,0x1357a
800006a8:	bdf48493          	addi	s1,s1,-1057 # 0x13579bdf
800006ac:	2468b937          	lui	s2,0x2468b
800006b0:	ce090913          	addi	s2,s2,-800 # 0x2468ace0
800006b4:	00000617          	auipc	a2,0x0
800006b8:	00c60613          	addi	a2,a2,12 # 0x800006c0
800006bc:	00000073          	ecall
800006c0:	00000697          	auipc	a3,0x0
800006c4:	00c68693          	addi	a3,a3,12 # 0x800006cc
800006c8:	00000073          	ecall
800006cc:	00048713          	mv	a4,s1
800006d0:	00090793          	mv	a5,s2
800006d4:	fcc42423          	sw	a2,-56(s0)
800006d8:	fcd42223          	sw	a3,-60(s0)
800006dc:	fce42023          	sw	a4,-64(s0)
800006e0:	faf42e23          	sw	a5,-68(s0)
800006e4:	800017b7          	lui	a5,0x80001
800006e8:	e8078793          	addi	a5,a5,-384 # 0x80000e80
800006ec:	fcc42703          	lw	a4,-52(s0)
800006f0:	00f70663          	beq	a4,a5,0x800006fc
800006f4:	00000793          	li	a5,0
800006f8:	1500006f          	j	0x80000848
800006fc:	fb042703          	lw	a4,-80(s0)
80000700:	fb842783          	lw	a5,-72(s0)
80000704:	00f70663          	beq	a4,a5,0x80000710
80000708:	00000793          	li	a5,0
8000070c:	13c0006f          	j	0x80000848
80000710:	fac42703          	lw	a4,-84(s0)
80000714:	fe042783          	lw	a5,-32(s0)
80000718:	00f70663          	beq	a4,a5,0x80000724
8000071c:	00000793          	li	a5,0
80000720:	1280006f          	j	0x80000848
80000724:	fa842703          	lw	a4,-88(s0)
80000728:	fd442783          	lw	a5,-44(s0)
8000072c:	00f70663          	beq	a4,a5,0x80000738
80000730:	00000793          	li	a5,0
80000734:	1140006f          	j	0x80000848
80000738:	fa442703          	lw	a4,-92(s0)
8000073c:	fd042783          	lw	a5,-48(s0)
80000740:	00f70663          	beq	a4,a5,0x8000074c
80000744:	00000793          	li	a5,0
80000748:	1000006f          	j	0x80000848
8000074c:	fa042703          	lw	a4,-96(s0)
80000750:	00500793          	li	a5,5
80000754:	00f70663          	beq	a4,a5,0x80000760
80000758:	00000793          	li	a5,0
8000075c:	0ec0006f          	j	0x80000848
80000760:	f9c42703          	lw	a4,-100(s0)
80000764:	00700793          	li	a5,7
80000768:	00f70663          	beq	a4,a5,0x80000774
8000076c:	00000793          	li	a5,0
80000770:	0d80006f          	j	0x80000848
80000774:	f9842703          	lw	a4,-104(s0)
80000778:	00600793          	li	a5,6
8000077c:	00f70663          	beq	a4,a5,0x80000788
80000780:	00000793          	li	a5,0
80000784:	0c40006f          	j	0x80000848
80000788:	fb442703          	lw	a4,-76(s0)
8000078c:	fb842783          	lw	a5,-72(s0)
80000790:	00f70663          	beq	a4,a5,0x8000079c
80000794:	00000793          	li	a5,0
80000798:	0b00006f          	j	0x80000848
8000079c:	801197b7          	lui	a5,0x80119
800007a0:	0347a703          	lw	a4,52(a5) # 0x80119034
800007a4:	00100793          	li	a5,1
800007a8:	00f70663          	beq	a4,a5,0x800007b4
800007ac:	00000793          	li	a5,0
800007b0:	0980006f          	j	0x80000848
800007b4:	801197b7          	lui	a5,0x80119
800007b8:	0447a703          	lw	a4,68(a5) # 0x80119044
800007bc:	00200793          	li	a5,2
800007c0:	00f70663          	beq	a4,a5,0x800007cc
800007c4:	00000793          	li	a5,0
800007c8:	0800006f          	j	0x80000848
800007cc:	801197b7          	lui	a5,0x80119
800007d0:	0387a783          	lw	a5,56(a5) # 0x80119038
800007d4:	fec42703          	lw	a4,-20(s0)
800007d8:	00f70663          	beq	a4,a5,0x800007e4
800007dc:	00000793          	li	a5,0
800007e0:	0680006f          	j	0x80000848
800007e4:	801197b7          	lui	a5,0x80119
800007e8:	03c7a783          	lw	a5,60(a5) # 0x8011903c
800007ec:	00478713          	addi	a4,a5,4
800007f0:	801197b7          	lui	a5,0x80119
800007f4:	0407a783          	lw	a5,64(a5) # 0x80119040
800007f8:	00f70663          	beq	a4,a5,0x80000804
800007fc:	00000793          	li	a5,0
80000800:	0480006f          	j	0x80000848
80000804:	801197b7          	lui	a5,0x80119
80000808:	0407a783          	lw	a5,64(a5) # 0x80119040
8000080c:	fc442703          	lw	a4,-60(s0)
80000810:	00f70663          	beq	a4,a5,0x8000081c
80000814:	00000793          	li	a5,0
80000818:	0300006f          	j	0x80000848
8000081c:	fc042703          	lw	a4,-64(s0)
80000820:	fe842783          	lw	a5,-24(s0)
80000824:	00f70663          	beq	a4,a5,0x80000830
80000828:	00000793          	li	a5,0
8000082c:	01c0006f          	j	0x80000848
80000830:	fbc42703          	lw	a4,-68(s0)
80000834:	fe442783          	lw	a5,-28(s0)
80000838:	00f70663          	beq	a4,a5,0x80000844
8000083c:	00000793          	li	a5,0
80000840:	0080006f          	j	0x80000848
80000844:	00100793          	li	a5,1
80000848:	00078513          	mv	a0,a5
8000084c:	06c12083          	lw	ra,108(sp)
80000850:	06812403          	lw	s0,104(sp)
80000854:	06412483          	lw	s1,100(sp)
80000858:	06012903          	lw	s2,96(sp)
8000085c:	07010113          	addi	sp,sp,112
80000860:	00008067          	ret
80000864:	fd010113          	addi	sp,sp,-48
80000868:	02112623          	sw	ra,44(sp)
8000086c:	02812423          	sw	s0,40(sp)
80000870:	03010413          	addi	s0,sp,48
80000874:	fca42e23          	sw	a0,-36(s0)
80000878:	fcb42c23          	sw	a1,-40(s0)
8000087c:	fcc42a23          	sw	a2,-44(s0)
80000880:	fe042623          	sw	zero,-20(s0)
80000884:	1080006f          	j	0x8000098c
80000888:	fe042423          	sw	zero,-24(s0)
8000088c:	0e80006f          	j	0x80000974
80000890:	fe042023          	sw	zero,-32(s0)
80000894:	fe042223          	sw	zero,-28(s0)
80000898:	0900006f          	j	0x80000928
8000089c:	fec42703          	lw	a4,-20(s0)
800008a0:	00070793          	mv	a5,a4
800008a4:	00279793          	slli	a5,a5,0x2
800008a8:	00e787b3          	add	a5,a5,a4
800008ac:	00679793          	slli	a5,a5,0x6
800008b0:	00078713          	mv	a4,a5
800008b4:	fdc42783          	lw	a5,-36(s0)
800008b8:	00e78733          	add	a4,a5,a4
800008bc:	fe442783          	lw	a5,-28(s0)
800008c0:	00279793          	slli	a5,a5,0x2
800008c4:	00f707b3          	add	a5,a4,a5
800008c8:	0007a683          	lw	a3,0(a5)
800008cc:	fe442703          	lw	a4,-28(s0)
800008d0:	00070793          	mv	a5,a4
800008d4:	00279793          	slli	a5,a5,0x2
800008d8:	00e787b3          	add	a5,a5,a4
800008dc:	00679793          	slli	a5,a5,0x6
800008e0:	00078713          	mv	a4,a5
800008e4:	fd842783          	lw	a5,-40(s0)
800008e8:	00e78733          	add	a4,a5,a4
800008ec:	fe842783          	lw	a5,-24(s0)
800008f0:	00279793          	slli	a5,a5,0x2
800008f4:	00f707b3          	add	a5,a4,a5
800008f8:	0007a783          	lw	a5,0(a5)
800008fc:	00078593          	mv	a1,a5
80000900:	00068513          	mv	a0,a3
80000904:	4e0010ef          	jal	0x80001de4
80000908:	00050793          	mv	a5,a0
8000090c:	00078713          	mv	a4,a5
80000910:	fe042783          	lw	a5,-32(s0)
80000914:	00e787b3          	add	a5,a5,a4
80000918:	fef42023          	sw	a5,-32(s0)
8000091c:	fe442783          	lw	a5,-28(s0)
80000920:	00178793          	addi	a5,a5,1
80000924:	fef42223          	sw	a5,-28(s0)
80000928:	fe442703          	lw	a4,-28(s0)
8000092c:	04f00793          	li	a5,79
80000930:	f6e7d6e3          	bge	a5,a4,0x8000089c
80000934:	fec42703          	lw	a4,-20(s0)
80000938:	00070793          	mv	a5,a4
8000093c:	00279793          	slli	a5,a5,0x2
80000940:	00e787b3          	add	a5,a5,a4
80000944:	00679793          	slli	a5,a5,0x6
80000948:	00078713          	mv	a4,a5
8000094c:	fd442783          	lw	a5,-44(s0)
80000950:	00e78733          	add	a4,a5,a4
80000954:	fe842783          	lw	a5,-24(s0)
80000958:	00279793          	slli	a5,a5,0x2
8000095c:	00f707b3          	add	a5,a4,a5
80000960:	fe042703          	lw	a4,-32(s0)
80000964:	00e7a023          	sw	a4,0(a5)
80000968:	fe842783          	lw	a5,-24(s0)
8000096c:	00178793          	addi	a5,a5,1
80000970:	fef42423          	sw	a5,-24(s0)
80000974:	fe842703          	lw	a4,-24(s0)
80000978:	04f00793          	li	a5,79
8000097c:	f0e7dae3          	bge	a5,a4,0x80000890
80000980:	fec42783          	lw	a5,-20(s0)
80000984:	00178793          	addi	a5,a5,1
80000988:	fef42623          	sw	a5,-20(s0)
8000098c:	fec42703          	lw	a4,-20(s0)
80000990:	04f00793          	li	a5,79
80000994:	eee7dae3          	bge	a5,a4,0x80000888
80000998:	00000013          	nop
8000099c:	00000013          	nop
800009a0:	02c12083          	lw	ra,44(sp)
800009a4:	02812403          	lw	s0,40(sp)
800009a8:	03010113          	addi	sp,sp,48
800009ac:	00008067          	ret
800009b0:	bd010113          	addi	sp,sp,-1072
800009b4:	42112623          	sw	ra,1068(sp)
800009b8:	42812423          	sw	s0,1064(sp)
800009bc:	43010413          	addi	s0,sp,1072
800009c0:	ffffa2b7          	lui	t0,0xffffa
800009c4:	00510133          	add	sp,sp,t0
800009c8:	ffffa7b7          	lui	a5,0xffffa
800009cc:	ff078793          	addi	a5,a5,-16 # 0xffff9ff0
800009d0:	008787b3          	add	a5,a5,s0
800009d4:	bea7a623          	sw	a0,-1044(a5)
800009d8:	ffffa7b7          	lui	a5,0xffffa
800009dc:	ff078793          	addi	a5,a5,-16 # 0xffff9ff0
800009e0:	008787b3          	add	a5,a5,s0
800009e4:	beb7a423          	sw	a1,-1048(a5)
800009e8:	ffffa7b7          	lui	a5,0xffffa
800009ec:	ff078793          	addi	a5,a5,-16 # 0xffff9ff0
800009f0:	008787b3          	add	a5,a5,s0
800009f4:	bec7a223          	sw	a2,-1052(a5)
800009f8:	fe042623          	sw	zero,-20(s0)
800009fc:	0a00006f          	j	0x80000a9c
80000a00:	fe042423          	sw	zero,-24(s0)
80000a04:	0800006f          	j	0x80000a84
80000a08:	fec42703          	lw	a4,-20(s0)
80000a0c:	00070793          	mv	a5,a4
80000a10:	00279793          	slli	a5,a5,0x2
80000a14:	00e787b3          	add	a5,a5,a4
80000a18:	00679793          	slli	a5,a5,0x6
80000a1c:	00078713          	mv	a4,a5
80000a20:	ffffa7b7          	lui	a5,0xffffa
80000a24:	ff078793          	addi	a5,a5,-16 # 0xffff9ff0
80000a28:	008787b3          	add	a5,a5,s0
80000a2c:	be87a783          	lw	a5,-1048(a5)
80000a30:	00e78733          	add	a4,a5,a4
80000a34:	fe842783          	lw	a5,-24(s0)
80000a38:	00279793          	slli	a5,a5,0x2
80000a3c:	00f707b3          	add	a5,a4,a5
80000a40:	0007a683          	lw	a3,0(a5)
80000a44:	ffffa7b7          	lui	a5,0xffffa
80000a48:	ff078793          	addi	a5,a5,-16 # 0xffff9ff0
80000a4c:	00878633          	add	a2,a5,s0
80000a50:	fe842703          	lw	a4,-24(s0)
80000a54:	00070793          	mv	a5,a4
80000a58:	00279793          	slli	a5,a5,0x2
80000a5c:	00e787b3          	add	a5,a5,a4
80000a60:	00479793          	slli	a5,a5,0x4
80000a64:	fec42703          	lw	a4,-20(s0)
80000a68:	00e787b3          	add	a5,a5,a4
80000a6c:	00279793          	slli	a5,a5,0x2
80000a70:	00f607b3          	add	a5,a2,a5
80000a74:	bed7a823          	sw	a3,-1040(a5)
80000a78:	fe842783          	lw	a5,-24(s0)
80000a7c:	00178793          	addi	a5,a5,1
80000a80:	fef42423          	sw	a5,-24(s0)
80000a84:	fe842703          	lw	a4,-24(s0)
80000a88:	04f00793          	li	a5,79
80000a8c:	f6e7dee3          	bge	a5,a4,0x80000a08
80000a90:	fec42783          	lw	a5,-20(s0)
80000a94:	00178793          	addi	a5,a5,1
80000a98:	fef42623          	sw	a5,-20(s0)
80000a9c:	fec42703          	lw	a4,-20(s0)
80000aa0:	04f00793          	li	a5,79
80000aa4:	f4e7dee3          	bge	a5,a4,0x80000a00
80000aa8:	fe042623          	sw	zero,-20(s0)
80000aac:	1240006f          	j	0x80000bd0
80000ab0:	fe042423          	sw	zero,-24(s0)
80000ab4:	1040006f          	j	0x80000bb8
80000ab8:	fe042023          	sw	zero,-32(s0)
80000abc:	fe042223          	sw	zero,-28(s0)
80000ac0:	0a00006f          	j	0x80000b60
80000ac4:	fec42703          	lw	a4,-20(s0)
80000ac8:	00070793          	mv	a5,a4
80000acc:	00279793          	slli	a5,a5,0x2
80000ad0:	00e787b3          	add	a5,a5,a4
80000ad4:	00679793          	slli	a5,a5,0x6
80000ad8:	00078713          	mv	a4,a5
80000adc:	ffffa7b7          	lui	a5,0xffffa
80000ae0:	ff078793          	addi	a5,a5,-16 # 0xffff9ff0
80000ae4:	008787b3          	add	a5,a5,s0
80000ae8:	bec7a783          	lw	a5,-1044(a5)
80000aec:	00e78733          	add	a4,a5,a4
80000af0:	fe442783          	lw	a5,-28(s0)
80000af4:	00279793          	slli	a5,a5,0x2
80000af8:	00f707b3          	add	a5,a4,a5
80000afc:	0007a603          	lw	a2,0(a5)
80000b00:	ffffa7b7          	lui	a5,0xffffa
80000b04:	ff078793          	addi	a5,a5,-16 # 0xffff9ff0
80000b08:	008786b3          	add	a3,a5,s0
80000b0c:	fe842703          	lw	a4,-24(s0)
80000b10:	00070793          	mv	a5,a4
80000b14:	00279793          	slli	a5,a5,0x2
80000b18:	00e787b3          	add	a5,a5,a4
80000b1c:	00479793          	slli	a5,a5,0x4
80000b20:	fe442703          	lw	a4,-28(s0)
80000b24:	00e787b3          	add	a5,a5,a4
80000b28:	00279793          	slli	a5,a5,0x2
80000b2c:	00f687b3          	add	a5,a3,a5
80000b30:	bf07a783          	lw	a5,-1040(a5)
80000b34:	00078593          	mv	a1,a5
80000b38:	00060513          	mv	a0,a2
80000b3c:	2a8010ef          	jal	0x80001de4
80000b40:	00050793          	mv	a5,a0
80000b44:	00078713          	mv	a4,a5
80000b48:	fe042783          	lw	a5,-32(s0)
80000b4c:	00e787b3          	add	a5,a5,a4
80000b50:	fef42023          	sw	a5,-32(s0)
80000b54:	fe442783          	lw	a5,-28(s0)
80000b58:	00178793          	addi	a5,a5,1
80000b5c:	fef42223          	sw	a5,-28(s0)
80000b60:	fe442703          	lw	a4,-28(s0)
80000b64:	04f00793          	li	a5,79
80000b68:	f4e7dee3          	bge	a5,a4,0x80000ac4
80000b6c:	fec42703          	lw	a4,-20(s0)
80000b70:	00070793          	mv	a5,a4
80000b74:	00279793          	slli	a5,a5,0x2
80000b78:	00e787b3          	add	a5,a5,a4
80000b7c:	00679793          	slli	a5,a5,0x6
80000b80:	00078713          	mv	a4,a5
80000b84:	ffffa7b7          	lui	a5,0xffffa
80000b88:	ff078793          	addi	a5,a5,-16 # 0xffff9ff0
80000b8c:	008787b3          	add	a5,a5,s0
80000b90:	be47a783          	lw	a5,-1052(a5)
80000b94:	00e78733          	add	a4,a5,a4
80000b98:	fe842783          	lw	a5,-24(s0)
80000b9c:	00279793          	slli	a5,a5,0x2
80000ba0:	00f707b3          	add	a5,a4,a5
80000ba4:	fe042703          	lw	a4,-32(s0)
80000ba8:	00e7a023          	sw	a4,0(a5)
80000bac:	fe842783          	lw	a5,-24(s0)
80000bb0:	00178793          	addi	a5,a5,1
80000bb4:	fef42423          	sw	a5,-24(s0)
80000bb8:	fe842703          	lw	a4,-24(s0)
80000bbc:	04f00793          	li	a5,79
80000bc0:	eee7dce3          	bge	a5,a4,0x80000ab8
80000bc4:	fec42783          	lw	a5,-20(s0)
80000bc8:	00178793          	addi	a5,a5,1
80000bcc:	fef42623          	sw	a5,-20(s0)
80000bd0:	fec42703          	lw	a4,-20(s0)
80000bd4:	04f00793          	li	a5,79
80000bd8:	ece7dce3          	bge	a5,a4,0x80000ab0
80000bdc:	00000013          	nop
80000be0:	00000013          	nop
80000be4:	000062b7          	lui	t0,0x6
80000be8:	00510133          	add	sp,sp,t0
80000bec:	42c12083          	lw	ra,1068(sp)
80000bf0:	42812403          	lw	s0,1064(sp)
80000bf4:	43010113          	addi	sp,sp,1072
80000bf8:	00008067          	ret
80000bfc:	fd010113          	addi	sp,sp,-48
80000c00:	02112623          	sw	ra,44(sp)
80000c04:	02812423          	sw	s0,40(sp)
80000c08:	03010413          	addi	s0,sp,48
80000c0c:	fca42e23          	sw	a0,-36(s0)
80000c10:	fcb42c23          	sw	a1,-40(s0)
80000c14:	fe042623          	sw	zero,-20(s0)
80000c18:	09c0006f          	j	0x80000cb4
80000c1c:	fe042423          	sw	zero,-24(s0)
80000c20:	07c0006f          	j	0x80000c9c
80000c24:	fec42703          	lw	a4,-20(s0)
80000c28:	00070793          	mv	a5,a4
80000c2c:	00279793          	slli	a5,a5,0x2
80000c30:	00e787b3          	add	a5,a5,a4
80000c34:	00679793          	slli	a5,a5,0x6
80000c38:	00078713          	mv	a4,a5
80000c3c:	fdc42783          	lw	a5,-36(s0)
80000c40:	00e78733          	add	a4,a5,a4
80000c44:	fe842783          	lw	a5,-24(s0)
80000c48:	00279793          	slli	a5,a5,0x2
80000c4c:	00f707b3          	add	a5,a4,a5
80000c50:	0007a683          	lw	a3,0(a5)
80000c54:	fec42703          	lw	a4,-20(s0)
80000c58:	00070793          	mv	a5,a4
80000c5c:	00279793          	slli	a5,a5,0x2
80000c60:	00e787b3          	add	a5,a5,a4
80000c64:	00679793          	slli	a5,a5,0x6
80000c68:	00078713          	mv	a4,a5
80000c6c:	fd842783          	lw	a5,-40(s0)
80000c70:	00e78733          	add	a4,a5,a4
80000c74:	fe842783          	lw	a5,-24(s0)
80000c78:	00279793          	slli	a5,a5,0x2
80000c7c:	00f707b3          	add	a5,a4,a5
80000c80:	0007a783          	lw	a5,0(a5)
80000c84:	00f68663          	beq	a3,a5,0x80000c90
80000c88:	00000793          	li	a5,0
80000c8c:	0380006f          	j	0x80000cc4
80000c90:	fe842783          	lw	a5,-24(s0)
80000c94:	00178793          	addi	a5,a5,1
80000c98:	fef42423          	sw	a5,-24(s0)
80000c9c:	fe842703          	lw	a4,-24(s0)
80000ca0:	04f00793          	li	a5,79
80000ca4:	f8e7d0e3          	bge	a5,a4,0x80000c24
80000ca8:	fec42783          	lw	a5,-20(s0)
80000cac:	00178793          	addi	a5,a5,1
80000cb0:	fef42623          	sw	a5,-20(s0)
80000cb4:	fec42703          	lw	a4,-20(s0)
80000cb8:	04f00793          	li	a5,79
80000cbc:	f6e7d0e3          	bge	a5,a4,0x80000c1c
80000cc0:	00100793          	li	a5,1
80000cc4:	00078513          	mv	a0,a5
80000cc8:	02c12083          	lw	ra,44(sp)
80000ccc:	02812403          	lw	s0,40(sp)
80000cd0:	03010113          	addi	sp,sp,48
80000cd4:	00008067          	ret
80000cd8:	fd010113          	addi	sp,sp,-48
80000cdc:	02112623          	sw	ra,44(sp)
80000ce0:	02812423          	sw	s0,40(sp)
80000ce4:	02912223          	sw	s1,36(sp)
80000ce8:	03010413          	addi	s0,sp,48
80000cec:	fca42e23          	sw	a0,-36(s0)
80000cf0:	fcb42c23          	sw	a1,-40(s0)
80000cf4:	fe042623          	sw	zero,-20(s0)
80000cf8:	0900006f          	j	0x80000d88
80000cfc:	fe042423          	sw	zero,-24(s0)
80000d00:	0700006f          	j	0x80000d70
80000d04:	fe842583          	lw	a1,-24(s0)
80000d08:	fec42503          	lw	a0,-20(s0)
80000d0c:	0d8010ef          	jal	0x80001de4
80000d10:	00050793          	mv	a5,a0
80000d14:	00078713          	mv	a4,a5
80000d18:	fd842783          	lw	a5,-40(s0)
80000d1c:	00f706b3          	add	a3,a4,a5
80000d20:	fec42703          	lw	a4,-20(s0)
80000d24:	00070793          	mv	a5,a4
80000d28:	00279793          	slli	a5,a5,0x2
80000d2c:	00e787b3          	add	a5,a5,a4
80000d30:	00679793          	slli	a5,a5,0x6
80000d34:	00078713          	mv	a4,a5
80000d38:	fdc42783          	lw	a5,-36(s0)
80000d3c:	00e784b3          	add	s1,a5,a4
80000d40:	06400593          	li	a1,100
80000d44:	00068513          	mv	a0,a3
80000d48:	06c010ef          	jal	0x80001db4
80000d4c:	00050793          	mv	a5,a0
80000d50:	00078713          	mv	a4,a5
80000d54:	fe842783          	lw	a5,-24(s0)
80000d58:	00279793          	slli	a5,a5,0x2
80000d5c:	00f487b3          	add	a5,s1,a5
80000d60:	00e7a023          	sw	a4,0(a5)
80000d64:	fe842783          	lw	a5,-24(s0)
80000d68:	00178793          	addi	a5,a5,1
80000d6c:	fef42423          	sw	a5,-24(s0)
80000d70:	fe842703          	lw	a4,-24(s0)
80000d74:	04f00793          	li	a5,79
80000d78:	f8e7d6e3          	bge	a5,a4,0x80000d04
80000d7c:	fec42783          	lw	a5,-20(s0)
80000d80:	00178793          	addi	a5,a5,1
80000d84:	fef42623          	sw	a5,-20(s0)
80000d88:	fec42703          	lw	a4,-20(s0)
80000d8c:	04f00793          	li	a5,79
80000d90:	f6e7d6e3          	bge	a5,a4,0x80000cfc
80000d94:	00000013          	nop
80000d98:	00000013          	nop
80000d9c:	02c12083          	lw	ra,44(sp)
80000da0:	02812403          	lw	s0,40(sp)
80000da4:	02412483          	lw	s1,36(sp)
80000da8:	03010113          	addi	sp,sp,48
80000dac:	00008067          	ret
80000db0:	fe010113          	addi	sp,sp,-32
80000db4:	00112e23          	sw	ra,28(sp)
80000db8:	00812c23          	sw	s0,24(sp)
80000dbc:	02010413          	addi	s0,sp,32
80000dc0:	fe042623          	sw	zero,-20(s0)
80000dc4:	0940006f          	j	0x80000e58
80000dc8:	fec42583          	lw	a1,-20(s0)
80000dcc:	801007b7          	lui	a5,0x80100
80000dd0:	03478513          	addi	a0,a5,52 # 0x80100034
80000dd4:	f05ff0ef          	jal	0x80000cd8
80000dd8:	fec42783          	lw	a5,-20(s0)
80000ddc:	00179793          	slli	a5,a5,0x1
80000de0:	00078593          	mv	a1,a5
80000de4:	801067b7          	lui	a5,0x80106
80000de8:	43478513          	addi	a0,a5,1076 # 0x80106434
80000dec:	eedff0ef          	jal	0x80000cd8
80000df0:	8010d7b7          	lui	a5,0x8010d
80000df4:	83478613          	addi	a2,a5,-1996 # 0x8010c834
80000df8:	801067b7          	lui	a5,0x80106
80000dfc:	43478593          	addi	a1,a5,1076 # 0x80106434
80000e00:	801007b7          	lui	a5,0x80100
80000e04:	03478513          	addi	a0,a5,52 # 0x80100034
80000e08:	a5dff0ef          	jal	0x80000864
80000e0c:	801137b7          	lui	a5,0x80113
80000e10:	c3478613          	addi	a2,a5,-972 # 0x80112c34
80000e14:	801067b7          	lui	a5,0x80106
80000e18:	43478593          	addi	a1,a5,1076 # 0x80106434
80000e1c:	801007b7          	lui	a5,0x80100
80000e20:	03478513          	addi	a0,a5,52 # 0x80100034
80000e24:	b8dff0ef          	jal	0x800009b0
80000e28:	801137b7          	lui	a5,0x80113
80000e2c:	c3478593          	addi	a1,a5,-972 # 0x80112c34
80000e30:	8010d7b7          	lui	a5,0x8010d
80000e34:	83478513          	addi	a0,a5,-1996 # 0x8010c834
80000e38:	dc5ff0ef          	jal	0x80000bfc
80000e3c:	00050793          	mv	a5,a0
80000e40:	00079663          	bnez	a5,0x80000e4c
80000e44:	00000793          	li	a5,0
80000e48:	0200006f          	j	0x80000e68
80000e4c:	fec42783          	lw	a5,-20(s0)
80000e50:	00178793          	addi	a5,a5,1
80000e54:	fef42623          	sw	a5,-20(s0)
80000e58:	fec42703          	lw	a4,-20(s0)
80000e5c:	00900793          	li	a5,9
80000e60:	f6e7d4e3          	bge	a5,a4,0x80000dc8
80000e64:	00100793          	li	a5,1
80000e68:	00078513          	mv	a0,a5
80000e6c:	01c12083          	lw	ra,28(sp)
80000e70:	01812403          	lw	s0,24(sp)
80000e74:	02010113          	addi	sp,sp,32
80000e78:	00008067          	ret
80000e7c:	0000                	unimp
80000e7e:	0000                	unimp
80000e80:	f7410113          	addi	sp,sp,-140
80000e84:	00112223          	sw	ra,4(sp)
80000e88:	00312623          	sw	gp,12(sp)
80000e8c:	00412823          	sw	tp,16(sp)
80000e90:	00512a23          	sw	t0,20(sp)
80000e94:	00612c23          	sw	t1,24(sp)
80000e98:	00712e23          	sw	t2,28(sp)
80000e9c:	02812023          	sw	s0,32(sp)
80000ea0:	02912223          	sw	s1,36(sp)
80000ea4:	02a12423          	sw	a0,40(sp)
80000ea8:	02b12623          	sw	a1,44(sp)
80000eac:	02c12823          	sw	a2,48(sp)
80000eb0:	02d12a23          	sw	a3,52(sp)
80000eb4:	02e12c23          	sw	a4,56(sp)
80000eb8:	02f12e23          	sw	a5,60(sp)
80000ebc:	05012023          	sw	a6,64(sp)
80000ec0:	05112223          	sw	a7,68(sp)
80000ec4:	05212423          	sw	s2,72(sp)
80000ec8:	05312623          	sw	s3,76(sp)
80000ecc:	05412823          	sw	s4,80(sp)
80000ed0:	05512a23          	sw	s5,84(sp)
80000ed4:	05612c23          	sw	s6,88(sp)
80000ed8:	05712e23          	sw	s7,92(sp)
80000edc:	07812023          	sw	s8,96(sp)
80000ee0:	07912223          	sw	s9,100(sp)
80000ee4:	07a12423          	sw	s10,104(sp)
80000ee8:	07b12623          	sw	s11,108(sp)
80000eec:	07c12823          	sw	t3,112(sp)
80000ef0:	07d12a23          	sw	t4,116(sp)
80000ef4:	07e12c23          	sw	t5,120(sp)
80000ef8:	07f12e23          	sw	t6,124(sp)
80000efc:	342022f3          	csrr	t0,mcause
80000f00:	30002373          	csrr	t1,mstatus
80000f04:	341023f3          	csrr	t2,mepc
80000f08:	08512023          	sw	t0,128(sp)
80000f0c:	08612223          	sw	t1,132(sp)
80000f10:	08712423          	sw	t2,136(sp)
80000f14:	00010513          	mv	a0,sp
80000f18:	d94ff0ef          	jal	0x800004ac
80000f1c:	08412303          	lw	t1,132(sp)
80000f20:	08812383          	lw	t2,136(sp)
80000f24:	30031073          	csrw	mstatus,t1
80000f28:	34139073          	csrw	mepc,t2
80000f2c:	00412083          	lw	ra,4(sp)
80000f30:	00c12183          	lw	gp,12(sp)
80000f34:	01012203          	lw	tp,16(sp)
80000f38:	01412283          	lw	t0,20(sp)
80000f3c:	01812303          	lw	t1,24(sp)
80000f40:	01c12383          	lw	t2,28(sp)
80000f44:	02012403          	lw	s0,32(sp)
80000f48:	02412483          	lw	s1,36(sp)
80000f4c:	02812503          	lw	a0,40(sp)
80000f50:	02c12583          	lw	a1,44(sp)
80000f54:	03012603          	lw	a2,48(sp)
80000f58:	03412683          	lw	a3,52(sp)
80000f5c:	03812703          	lw	a4,56(sp)
80000f60:	03c12783          	lw	a5,60(sp)
80000f64:	04012803          	lw	a6,64(sp)
80000f68:	04412883          	lw	a7,68(sp)
80000f6c:	04812903          	lw	s2,72(sp)
80000f70:	04c12983          	lw	s3,76(sp)
80000f74:	05012a03          	lw	s4,80(sp)
80000f78:	05412a83          	lw	s5,84(sp)
80000f7c:	05812b03          	lw	s6,88(sp)
80000f80:	05c12b83          	lw	s7,92(sp)
80000f84:	06012c03          	lw	s8,96(sp)
80000f88:	06412c83          	lw	s9,100(sp)
80000f8c:	06812d03          	lw	s10,104(sp)
80000f90:	06c12d83          	lw	s11,108(sp)
80000f94:	07012e03          	lw	t3,112(sp)
80000f98:	07412e83          	lw	t4,116(sp)
80000f9c:	07812f03          	lw	t5,120(sp)
80000fa0:	07c12f83          	lw	t6,124(sp)
80000fa4:	08c10113          	addi	sp,sp,140
80000fa8:	30200073          	mret
80000fac:	00000013          	nop
80000fb0:	000ff317          	auipc	t1,0xff
80000fb4:	05830313          	addi	t1,t1,88 # 0x80100008
80000fb8:	00132c23          	sw	ra,24(t1)
80000fbc:	0a4000ef          	jal	0x80001060
80000fc0:	184000ef          	jal	0x80001144
80000fc4:	34c000ef          	jal	0x80001310
80000fc8:	468000ef          	jal	0x80001430
80000fcc:	294000ef          	jal	0x80001260
80000fd0:	1d0000ef          	jal	0x800011a0
80000fd4:	4b0000ef          	jal	0x80001484
80000fd8:	55c000ef          	jal	0x80001534
80000fdc:	600000ef          	jal	0x800015dc
80000fe0:	6ac000ef          	jal	0x8000168c
80000fe4:	764000ef          	jal	0x80001748
80000fe8:	79c000ef          	jal	0x80001784
80000fec:	38c000ef          	jal	0x80001378
80000ff0:	108000ef          	jal	0x800010f8
80000ff4:	218000ef          	jal	0x8000120c
80000ff8:	2c4000ef          	jal	0x800012bc
80000ffc:	3e8000ef          	jal	0x800013e4
80001000:	4dc000ef          	jal	0x800014dc
80001004:	588000ef          	jal	0x8000158c
80001008:	630000ef          	jal	0x80001638
8000100c:	6ec000ef          	jal	0x800016f8
80001010:	015000ef          	jal	0x80001824
80001014:	7bc000ef          	jal	0x800017d0
80001018:	151000ef          	jal	0x80001968
8000101c:	1d5000ef          	jal	0x800019f0
80001020:	059000ef          	jal	0x80001878
80001024:	0a5000ef          	jal	0x800018c8
80001028:	0f9000ef          	jal	0x80001920
8000102c:	231000ef          	jal	0x80001a5c
80001030:	27d000ef          	jal	0x80001aac
80001034:	2cd000ef          	jal	0x80001b00
80001038:	315000ef          	jal	0x80001b4c
8000103c:	35d000ef          	jal	0x80001b98
80001040:	3a5000ef          	jal	0x80001be4
80001044:	3ed000ef          	jal	0x80001c30
80001048:	435000ef          	jal	0x80001c7c
8000104c:	481000ef          	jal	0x80001ccc
80001050:	000ff317          	auipc	t1,0xff
80001054:	fb830313          	addi	t1,t1,-72 # 0x80100008
80001058:	01832083          	lw	ra,24(t1)
8000105c:	00008067          	ret
80001060:	800002b7          	lui	t0,0x80000
80001064:	fff28293          	addi	t0,t0,-1 # 0x7fffffff
80001068:	00100313          	li	t1,1
8000106c:	006283b3          	add	t2,t0,t1
80001070:	80000e37          	lui	t3,0x80000
80001074:	07c39663          	bne	t2,t3,0x800010e0
80001078:	fff00293          	li	t0,-1
8000107c:	00100313          	li	t1,1
80001080:	006283b3          	add	t2,t0,t1
80001084:	04039e63          	bnez	t2,0x800010e0
80001088:	123452b7          	lui	t0,0x12345
8000108c:	67828293          	addi	t0,t0,1656 # 0x12345678
80001090:	87654337          	lui	t1,0x87654
80001094:	32130313          	addi	t1,t1,801 # 0x87654321
80001098:	006283b3          	add	t2,t0,t1
8000109c:	9999ae37          	lui	t3,0x9999a
800010a0:	999e0e13          	addi	t3,t3,-1639 # 0x99999999
800010a4:	03c39e63          	bne	t2,t3,0x800010e0
800010a8:	9999ae37          	lui	t3,0x9999a
800010ac:	999e0e13          	addi	t3,t3,-1639 # 0x99999999
800010b0:	9999aeb7          	lui	t4,0x9999a
800010b4:	999e8e93          	addi	t4,t4,-1639 # 0x99999999
800010b8:	01de0f33          	add	t5,t3,t4
800010bc:	33333fb7          	lui	t6,0x33333
800010c0:	332f8f93          	addi	t6,t6,818 # 0x33333332
800010c4:	01ff1e63          	bne	t5,t6,0x800010e0
800010c8:	000ff297          	auipc	t0,0xff
800010cc:	f3828293          	addi	t0,t0,-200 # 0x80100000
800010d0:	0002a303          	lw	t1,0(t0)
800010d4:	00130313          	addi	t1,t1,1
800010d8:	0062a023          	sw	t1,0(t0)
800010dc:	00008067          	ret
800010e0:	000ff297          	auipc	t0,0xff
800010e4:	f2428293          	addi	t0,t0,-220 # 0x80100004
800010e8:	0002a303          	lw	t1,0(t0)
800010ec:	00130313          	addi	t1,t1,1
800010f0:	0062a023          	sw	t1,0(t0)
800010f4:	00008067          	ret
800010f8:	00000293          	li	t0,0
800010fc:	07b28313          	addi	t1,t0,123
80001100:	07b00393          	li	t2,123
80001104:	02731463          	bne	t1,t2,0x8000112c
80001108:	fff00293          	li	t0,-1
8000110c:	00128313          	addi	t1,t0,1
80001110:	00031e63          	bnez	t1,0x8000112c
80001114:	000ff297          	auipc	t0,0xff
80001118:	eec28293          	addi	t0,t0,-276 # 0x80100000
8000111c:	0002a303          	lw	t1,0(t0)
80001120:	00130313          	addi	t1,t1,1
80001124:	0062a023          	sw	t1,0(t0)
80001128:	00008067          	ret
8000112c:	000ff297          	auipc	t0,0xff
80001130:	ed828293          	addi	t0,t0,-296 # 0x80100004
80001134:	0002a303          	lw	t1,0(t0)
80001138:	00130313          	addi	t1,t1,1
8000113c:	0062a023          	sw	t1,0(t0)
80001140:	00008067          	ret
80001144:	800002b7          	lui	t0,0x80000
80001148:	fff28293          	addi	t0,t0,-1 # 0x7fffffff
8000114c:	80000337          	lui	t1,0x80000
80001150:	fff30313          	addi	t1,t1,-1 # 0x7fffffff
80001154:	406283b3          	sub	t2,t0,t1
80001158:	02039863          	bnez	t2,0x80001188
8000115c:	00000293          	li	t0,0
80001160:	fff00313          	li	t1,-1
80001164:	406283b3          	sub	t2,t0,t1
80001168:	00100e13          	li	t3,1
8000116c:	01c39e63          	bne	t2,t3,0x80001188
80001170:	000ff297          	auipc	t0,0xff
80001174:	e9028293          	addi	t0,t0,-368 # 0x80100000
80001178:	0002a303          	lw	t1,0(t0)
8000117c:	00130313          	addi	t1,t1,1
80001180:	0062a023          	sw	t1,0(t0)
80001184:	00008067          	ret
80001188:	000ff297          	auipc	t0,0xff
8000118c:	e7c28293          	addi	t0,t0,-388 # 0x80100004
80001190:	0002a303          	lw	t1,0(t0)
80001194:	00130313          	addi	t1,t1,1
80001198:	0062a023          	sw	t1,0(t0)
8000119c:	00008067          	ret
800011a0:	aaaab2b7          	lui	t0,0xaaaab
800011a4:	aaa28293          	addi	t0,t0,-1366 # 0xaaaaaaaa
800011a8:	55555337          	lui	t1,0x55555
800011ac:	55530313          	addi	t1,t1,1365 # 0x55555555
800011b0:	0062f3b3          	and	t2,t0,t1
800011b4:	04039063          	bnez	t2,0x800011f4
800011b8:	fff00293          	li	t0,-1
800011bc:	00000313          	li	t1,0
800011c0:	0062f3b3          	and	t2,t0,t1
800011c4:	02039863          	bnez	t2,0x800011f4
800011c8:	123452b7          	lui	t0,0x12345
800011cc:	67828293          	addi	t0,t0,1656 # 0x12345678
800011d0:	fff00313          	li	t1,-1
800011d4:	0062f3b3          	and	t2,t0,t1
800011d8:	00539e63          	bne	t2,t0,0x800011f4
800011dc:	000ff297          	auipc	t0,0xff
800011e0:	e2428293          	addi	t0,t0,-476 # 0x80100000
800011e4:	0002a303          	lw	t1,0(t0)
800011e8:	00130313          	addi	t1,t1,1
800011ec:	0062a023          	sw	t1,0(t0)
800011f0:	00008067          	ret
800011f4:	000ff297          	auipc	t0,0xff
800011f8:	e1028293          	addi	t0,t0,-496 # 0x80100004
800011fc:	0002a303          	lw	t1,0(t0)
80001200:	00130313          	addi	t1,t1,1
80001204:	0062a023          	sw	t1,0(t0)
80001208:	00008067          	ret
8000120c:	fff00293          	li	t0,-1
80001210:	70f2f313          	andi	t1,t0,1807
80001214:	70f00393          	li	t2,1807
80001218:	02731863          	bne	t1,t2,0x80001248
8000121c:	1234b2b7          	lui	t0,0x1234b
80001220:	bcd28293          	addi	t0,t0,-1075 # 0x1234abcd
80001224:	5cb2f313          	andi	t1,t0,1483
80001228:	1c900393          	li	t2,457
8000122c:	00731e63          	bne	t1,t2,0x80001248
80001230:	000ff297          	auipc	t0,0xff
80001234:	dd028293          	addi	t0,t0,-560 # 0x80100000
80001238:	0002a303          	lw	t1,0(t0)
8000123c:	00130313          	addi	t1,t1,1
80001240:	0062a023          	sw	t1,0(t0)
80001244:	00008067          	ret
80001248:	000ff297          	auipc	t0,0xff
8000124c:	dbc28293          	addi	t0,t0,-580 # 0x80100004
80001250:	0002a303          	lw	t1,0(t0)
80001254:	00130313          	addi	t1,t1,1
80001258:	0062a023          	sw	t1,0(t0)
8000125c:	00008067          	ret
80001260:	aaaab2b7          	lui	t0,0xaaaab
80001264:	aaa28293          	addi	t0,t0,-1366 # 0xaaaaaaaa
80001268:	55555337          	lui	t1,0x55555
8000126c:	55530313          	addi	t1,t1,1365 # 0x55555555
80001270:	0062e3b3          	or	t2,t0,t1
80001274:	fff00e13          	li	t3,-1
80001278:	03c39663          	bne	t2,t3,0x800012a4
8000127c:	00000293          	li	t0,0
80001280:	00000313          	li	t1,0
80001284:	0062e3b3          	or	t2,t0,t1
80001288:	00039e63          	bnez	t2,0x800012a4
8000128c:	000ff297          	auipc	t0,0xff
80001290:	d7428293          	addi	t0,t0,-652 # 0x80100000
80001294:	0002a303          	lw	t1,0(t0)
80001298:	00130313          	addi	t1,t1,1
8000129c:	0062a023          	sw	t1,0(t0)
800012a0:	00008067          	ret
800012a4:	000ff297          	auipc	t0,0xff
800012a8:	d6028293          	addi	t0,t0,-672 # 0x80100004
800012ac:	0002a303          	lw	t1,0(t0)
800012b0:	00130313          	addi	t1,t1,1
800012b4:	0062a023          	sw	t1,0(t0)
800012b8:	00008067          	ret
800012bc:	00000293          	li	t0,0
800012c0:	7f02e313          	ori	t1,t0,2032
800012c4:	7f000393          	li	t2,2032
800012c8:	02731863          	bne	t1,t2,0x800012f8
800012cc:	aaaa02b7          	lui	t0,0xaaaa0
800012d0:	7ff2e313          	ori	t1,t0,2047
800012d4:	aaaa03b7          	lui	t2,0xaaaa0
800012d8:	7ff38393          	addi	t2,t2,2047 # 0xaaaa07ff
800012dc:	00731e63          	bne	t1,t2,0x800012f8
800012e0:	000ff297          	auipc	t0,0xff
800012e4:	d2028293          	addi	t0,t0,-736 # 0x80100000
800012e8:	0002a303          	lw	t1,0(t0)
800012ec:	00130313          	addi	t1,t1,1
800012f0:	0062a023          	sw	t1,0(t0)
800012f4:	00008067          	ret
800012f8:	000ff297          	auipc	t0,0xff
800012fc:	d0c28293          	addi	t0,t0,-756 # 0x80100004
80001300:	0002a303          	lw	t1,0(t0)
80001304:	00130313          	addi	t1,t1,1
80001308:	0062a023          	sw	t1,0(t0)
8000130c:	00008067          	ret
80001310:	fff00293          	li	t0,-1
80001314:	00000313          	li	t1,0
80001318:	0062a3b3          	slt	t2,t0,t1
8000131c:	00100e13          	li	t3,1
80001320:	05c39063          	bne	t2,t3,0x80001360
80001324:	07b00293          	li	t0,123
80001328:	07b00313          	li	t1,123
8000132c:	0062a3b3          	slt	t2,t0,t1
80001330:	02039863          	bnez	t2,0x80001360
80001334:	800002b7          	lui	t0,0x80000
80001338:	fff28293          	addi	t0,t0,-1 # 0x7fffffff
8000133c:	fff00313          	li	t1,-1
80001340:	0062a3b3          	slt	t2,t0,t1
80001344:	00039e63          	bnez	t2,0x80001360
80001348:	000ff297          	auipc	t0,0xff
8000134c:	cb828293          	addi	t0,t0,-840 # 0x80100000
80001350:	0002a303          	lw	t1,0(t0)
80001354:	00130313          	addi	t1,t1,1
80001358:	0062a023          	sw	t1,0(t0)
8000135c:	00008067          	ret
80001360:	000ff297          	auipc	t0,0xff
80001364:	ca428293          	addi	t0,t0,-860 # 0x80100004
80001368:	0002a303          	lw	t1,0(t0)
8000136c:	00130313          	addi	t1,t1,1
80001370:	0062a023          	sw	t1,0(t0)
80001374:	00008067          	ret
80001378:	fff00293          	li	t0,-1
8000137c:	0002a313          	slti	t1,t0,0
80001380:	00100393          	li	t2,1
80001384:	04731663          	bne	t1,t2,0x800013d0
80001388:	00500293          	li	t0,5
8000138c:	00a2a313          	slti	t1,t0,10
80001390:	00100393          	li	t2,1
80001394:	02731e63          	bne	t1,t2,0x800013d0
80001398:	00500293          	li	t0,5
8000139c:	0052a313          	slti	t1,t0,5
800013a0:	00000393          	li	t2,0
800013a4:	02731663          	bne	t1,t2,0x800013d0
800013a8:	00a00293          	li	t0,10
800013ac:	0052a313          	slti	t1,t0,5
800013b0:	00000393          	li	t2,0
800013b4:	00731e63          	bne	t1,t2,0x800013d0
800013b8:	000ff297          	auipc	t0,0xff
800013bc:	c4828293          	addi	t0,t0,-952 # 0x80100000
800013c0:	0002a303          	lw	t1,0(t0)
800013c4:	00130313          	addi	t1,t1,1
800013c8:	0062a023          	sw	t1,0(t0)
800013cc:	00008067          	ret
800013d0:	000ff297          	auipc	t0,0xff
800013d4:	c3428293          	addi	t0,t0,-972 # 0x80100004
800013d8:	0002a303          	lw	t1,0(t0)
800013dc:	00130313          	addi	t1,t1,1
800013e0:	0062a023          	sw	t1,0(t0)
800013e4:	00000293          	li	t0,0
800013e8:	0012b313          	seqz	t1,t0
800013ec:	00100393          	li	t2,1
800013f0:	02731463          	bne	t1,t2,0x80001418
800013f4:	fff00293          	li	t0,-1
800013f8:	fff2b313          	sltiu	t1,t0,-1
800013fc:	00031e63          	bnez	t1,0x80001418
80001400:	000ff297          	auipc	t0,0xff
80001404:	c0028293          	addi	t0,t0,-1024 # 0x80100000
80001408:	0002a303          	lw	t1,0(t0)
8000140c:	00130313          	addi	t1,t1,1
80001410:	0062a023          	sw	t1,0(t0)
80001414:	00008067          	ret
80001418:	000ff297          	auipc	t0,0xff
8000141c:	bec28293          	addi	t0,t0,-1044 # 0x80100004
80001420:	0002a303          	lw	t1,0(t0)
80001424:	00130313          	addi	t1,t1,1
80001428:	0062a023          	sw	t1,0(t0)
8000142c:	00008067          	ret
80001430:	fff00293          	li	t0,-1
80001434:	00000313          	li	t1,0
80001438:	0062b3b3          	sltu	t2,t0,t1
8000143c:	02039863          	bnez	t2,0x8000146c
80001440:	00000293          	li	t0,0
80001444:	00100313          	li	t1,1
80001448:	0062b3b3          	sltu	t2,t0,t1
8000144c:	00100e13          	li	t3,1
80001450:	01c39e63          	bne	t2,t3,0x8000146c
80001454:	000ff297          	auipc	t0,0xff
80001458:	bac28293          	addi	t0,t0,-1108 # 0x80100000
8000145c:	0002a303          	lw	t1,0(t0)
80001460:	00130313          	addi	t1,t1,1
80001464:	0062a023          	sw	t1,0(t0)
80001468:	00008067          	ret
8000146c:	000ff297          	auipc	t0,0xff
80001470:	b9828293          	addi	t0,t0,-1128 # 0x80100004
80001474:	0002a303          	lw	t1,0(t0)
80001478:	00130313          	addi	t1,t1,1
8000147c:	0062a023          	sw	t1,0(t0)
80001480:	00008067          	ret
80001484:	ffff02b7          	lui	t0,0xffff0
80001488:	00010337          	lui	t1,0x10
8000148c:	fff30313          	addi	t1,t1,-1 # 0xffff
80001490:	0062c3b3          	xor	t2,t0,t1
80001494:	fff00e13          	li	t3,-1
80001498:	03c39663          	bne	t2,t3,0x800014c4
8000149c:	aaaab2b7          	lui	t0,0xaaaab
800014a0:	aaa28293          	addi	t0,t0,-1366 # 0xaaaaaaaa
800014a4:	0052c3b3          	xor	t2,t0,t0
800014a8:	00039e63          	bnez	t2,0x800014c4
800014ac:	000ff297          	auipc	t0,0xff
800014b0:	b5428293          	addi	t0,t0,-1196 # 0x80100000
800014b4:	0002a303          	lw	t1,0(t0)
800014b8:	00130313          	addi	t1,t1,1
800014bc:	0062a023          	sw	t1,0(t0)
800014c0:	00008067          	ret
800014c4:	000ff297          	auipc	t0,0xff
800014c8:	b4028293          	addi	t0,t0,-1216 # 0x80100004
800014cc:	0002a303          	lw	t1,0(t0)
800014d0:	00130313          	addi	t1,t1,1
800014d4:	0062a023          	sw	t1,0(t0)
800014d8:	00008067          	ret
800014dc:	0000b2b7          	lui	t0,0xb
800014e0:	aaa28293          	addi	t0,t0,-1366 # 0xaaaa
800014e4:	5552c313          	xori	t1,t0,1365
800014e8:	0000b3b7          	lui	t2,0xb
800014ec:	fff38393          	addi	t2,t2,-1 # 0xafff
800014f0:	02731663          	bne	t1,t2,0x8000151c
800014f4:	00400293          	li	t0,4
800014f8:	2342c313          	xori	t1,t0,564
800014fc:	23000393          	li	t2,560
80001500:	00731e63          	bne	t1,t2,0x8000151c
80001504:	000ff297          	auipc	t0,0xff
80001508:	afc28293          	addi	t0,t0,-1284 # 0x80100000
8000150c:	0002a303          	lw	t1,0(t0)
80001510:	00130313          	addi	t1,t1,1
80001514:	0062a023          	sw	t1,0(t0)
80001518:	00008067          	ret
8000151c:	000ff297          	auipc	t0,0xff
80001520:	ae828293          	addi	t0,t0,-1304 # 0x80100004
80001524:	0002a303          	lw	t1,0(t0)
80001528:	00130313          	addi	t1,t1,1
8000152c:	0062a023          	sw	t1,0(t0)
80001530:	00008067          	ret
80001534:	00100293          	li	t0,1
80001538:	00300313          	li	t1,3
8000153c:	006293b3          	sll	t2,t0,t1
80001540:	00800e13          	li	t3,8
80001544:	03c39863          	bne	t2,t3,0x80001574
80001548:	00100293          	li	t0,1
8000154c:	01f00313          	li	t1,31
80001550:	006293b3          	sll	t2,t0,t1
80001554:	80000e37          	lui	t3,0x80000
80001558:	01c39e63          	bne	t2,t3,0x80001574
8000155c:	000ff297          	auipc	t0,0xff
80001560:	aa428293          	addi	t0,t0,-1372 # 0x80100000
80001564:	0002a303          	lw	t1,0(t0)
80001568:	00130313          	addi	t1,t1,1
8000156c:	0062a023          	sw	t1,0(t0)
80001570:	00008067          	ret
80001574:	000ff297          	auipc	t0,0xff
80001578:	a9028293          	addi	t0,t0,-1392 # 0x80100004
8000157c:	0002a303          	lw	t1,0(t0)
80001580:	00130313          	addi	t1,t1,1
80001584:	0062a023          	sw	t1,0(t0)
80001588:	00008067          	ret
8000158c:	00100293          	li	t0,1
80001590:	00429313          	slli	t1,t0,0x4
80001594:	01000393          	li	t2,16
80001598:	02731663          	bne	t1,t2,0x800015c4
8000159c:	00100293          	li	t0,1
800015a0:	01f29313          	slli	t1,t0,0x1f
800015a4:	800003b7          	lui	t2,0x80000
800015a8:	00731e63          	bne	t1,t2,0x800015c4
800015ac:	000ff297          	auipc	t0,0xff
800015b0:	a5428293          	addi	t0,t0,-1452 # 0x80100000
800015b4:	0002a303          	lw	t1,0(t0)
800015b8:	00130313          	addi	t1,t1,1
800015bc:	0062a023          	sw	t1,0(t0)
800015c0:	00008067          	ret
800015c4:	000ff297          	auipc	t0,0xff
800015c8:	a4028293          	addi	t0,t0,-1472 # 0x80100004
800015cc:	0002a303          	lw	t1,0(t0)
800015d0:	00130313          	addi	t1,t1,1
800015d4:	0062a023          	sw	t1,0(t0)
800015d8:	00008067          	ret
800015dc:	800002b7          	lui	t0,0x80000
800015e0:	01f00313          	li	t1,31
800015e4:	0062d3b3          	srl	t2,t0,t1
800015e8:	00100e13          	li	t3,1
800015ec:	03c39a63          	bne	t2,t3,0x80001620
800015f0:	fff00293          	li	t0,-1
800015f4:	00400313          	li	t1,4
800015f8:	0062d3b3          	srl	t2,t0,t1
800015fc:	10000e37          	lui	t3,0x10000
80001600:	fffe0e13          	addi	t3,t3,-1 # 0xfffffff
80001604:	01c39e63          	bne	t2,t3,0x80001620
80001608:	000ff297          	auipc	t0,0xff
8000160c:	9f828293          	addi	t0,t0,-1544 # 0x80100000
80001610:	0002a303          	lw	t1,0(t0)
80001614:	00130313          	addi	t1,t1,1
80001618:	0062a023          	sw	t1,0(t0)
8000161c:	00008067          	ret
80001620:	000ff297          	auipc	t0,0xff
80001624:	9e428293          	addi	t0,t0,-1564 # 0x80100004
80001628:	0002a303          	lw	t1,0(t0)
8000162c:	00130313          	addi	t1,t1,1
80001630:	0062a023          	sw	t1,0(t0)
80001634:	00008067          	ret
80001638:	800002b7          	lui	t0,0x80000
8000163c:	01f2d313          	srli	t1,t0,0x1f
80001640:	00100393          	li	t2,1
80001644:	02731863          	bne	t1,t2,0x80001674
80001648:	fff00293          	li	t0,-1
8000164c:	0042d313          	srli	t1,t0,0x4
80001650:	100003b7          	lui	t2,0x10000
80001654:	fff38393          	addi	t2,t2,-1 # 0xfffffff
80001658:	00731e63          	bne	t1,t2,0x80001674
8000165c:	000ff297          	auipc	t0,0xff
80001660:	9a428293          	addi	t0,t0,-1628 # 0x80100000
80001664:	0002a303          	lw	t1,0(t0)
80001668:	00130313          	addi	t1,t1,1
8000166c:	0062a023          	sw	t1,0(t0)
80001670:	00008067          	ret
80001674:	000ff297          	auipc	t0,0xff
80001678:	99028293          	addi	t0,t0,-1648 # 0x80100004
8000167c:	0002a303          	lw	t1,0(t0)
80001680:	00130313          	addi	t1,t1,1
80001684:	0062a023          	sw	t1,0(t0)
80001688:	00008067          	ret
8000168c:	fff00293          	li	t0,-1
80001690:	01f00313          	li	t1,31
80001694:	4062d3b3          	sra	t2,t0,t1
80001698:	fff00e13          	li	t3,-1
8000169c:	05c39263          	bne	t2,t3,0x800016e0
800016a0:	800002b7          	lui	t0,0x80000
800016a4:	01f00313          	li	t1,31
800016a8:	4062d3b3          	sra	t2,t0,t1
800016ac:	fff00e13          	li	t3,-1
800016b0:	03c39863          	bne	t2,t3,0x800016e0
800016b4:	010002b7          	lui	t0,0x1000
800016b8:	00400313          	li	t1,4
800016bc:	4062d3b3          	sra	t2,t0,t1
800016c0:	00100e37          	lui	t3,0x100
800016c4:	01c39e63          	bne	t2,t3,0x800016e0
800016c8:	000ff297          	auipc	t0,0xff
800016cc:	93828293          	addi	t0,t0,-1736 # 0x80100000
800016d0:	0002a303          	lw	t1,0(t0)
800016d4:	00130313          	addi	t1,t1,1
800016d8:	0062a023          	sw	t1,0(t0)
800016dc:	00008067          	ret
800016e0:	000ff297          	auipc	t0,0xff
800016e4:	92428293          	addi	t0,t0,-1756 # 0x80100004
800016e8:	0002a303          	lw	t1,0(t0)
800016ec:	00130313          	addi	t1,t1,1
800016f0:	0062a023          	sw	t1,0(t0)
800016f4:	00008067          	ret
800016f8:	fff00293          	li	t0,-1
800016fc:	41f2d313          	srai	t1,t0,0x1f
80001700:	fff00393          	li	t2,-1
80001704:	02731663          	bne	t1,t2,0x80001730
80001708:	800002b7          	lui	t0,0x80000
8000170c:	41f2d313          	srai	t1,t0,0x1f
80001710:	fff00393          	li	t2,-1
80001714:	00731e63          	bne	t1,t2,0x80001730
80001718:	000ff297          	auipc	t0,0xff
8000171c:	8e828293          	addi	t0,t0,-1816 # 0x80100000
80001720:	0002a303          	lw	t1,0(t0)
80001724:	00130313          	addi	t1,t1,1
80001728:	0062a023          	sw	t1,0(t0)
8000172c:	00008067          	ret
80001730:	000ff297          	auipc	t0,0xff
80001734:	8d428293          	addi	t0,t0,-1836 # 0x80100004
80001738:	0002a303          	lw	t1,0(t0)
8000173c:	00130313          	addi	t1,t1,1
80001740:	0062a023          	sw	t1,0(t0)
80001744:	00008067          	ret
80001748:	123452b7          	lui	t0,0x12345
8000174c:	12345337          	lui	t1,0x12345
80001750:	00629e63          	bne	t0,t1,0x8000176c
80001754:	000ff297          	auipc	t0,0xff
80001758:	8ac28293          	addi	t0,t0,-1876 # 0x80100000
8000175c:	0002a303          	lw	t1,0(t0)
80001760:	00130313          	addi	t1,t1,1 # 0x12345001
80001764:	0062a023          	sw	t1,0(t0)
80001768:	00008067          	ret
8000176c:	000ff297          	auipc	t0,0xff
80001770:	89828293          	addi	t0,t0,-1896 # 0x80100004
80001774:	0002a303          	lw	t1,0(t0)
80001778:	00130313          	addi	t1,t1,1
8000177c:	0062a023          	sw	t1,0(t0)
80001780:	00008067          	ret
80001784:	00000297          	auipc	t0,0x0
80001788:	00028293          	mv	t0,t0
8000178c:	00000013          	nop
80001790:	00000013          	nop
80001794:	00000317          	auipc	t1,0x0
80001798:	ff030313          	addi	t1,t1,-16 # 0x80001784
8000179c:	00629e63          	bne	t0,t1,0x800017b8
800017a0:	000ff297          	auipc	t0,0xff
800017a4:	86028293          	addi	t0,t0,-1952 # 0x80100000
800017a8:	0002a303          	lw	t1,0(t0)
800017ac:	00130313          	addi	t1,t1,1
800017b0:	0062a023          	sw	t1,0(t0)
800017b4:	00008067          	ret
800017b8:	000ff297          	auipc	t0,0xff
800017bc:	84c28293          	addi	t0,t0,-1972 # 0x80100004
800017c0:	0002a303          	lw	t1,0(t0)
800017c4:	00130313          	addi	t1,t1,1
800017c8:	0062a023          	sw	t1,0(t0)
800017cc:	00008067          	ret
800017d0:	123452b7          	lui	t0,0x12345
800017d4:	68828293          	addi	t0,t0,1672 # 0x12345688
800017d8:	000ff317          	auipc	t1,0xff
800017dc:	83030313          	addi	t1,t1,-2000 # 0x80100008
800017e0:	00532023          	sw	t0,0(t1)
800017e4:	00032383          	lw	t2,0(t1)
800017e8:	12345e37          	lui	t3,0x12345
800017ec:	688e0e13          	addi	t3,t3,1672 # 0x12345688
800017f0:	01c39e63          	bne	t2,t3,0x8000180c
800017f4:	000ff297          	auipc	t0,0xff
800017f8:	80c28293          	addi	t0,t0,-2036 # 0x80100000
800017fc:	0002a303          	lw	t1,0(t0)
80001800:	00130313          	addi	t1,t1,1
80001804:	0062a023          	sw	t1,0(t0)
80001808:	00008067          	ret
8000180c:	000fe297          	auipc	t0,0xfe
80001810:	7f828293          	addi	t0,t0,2040 # 0x80100004
80001814:	0002a303          	lw	t1,0(t0)
80001818:	00130313          	addi	t1,t1,1
8000181c:	0062a023          	sw	t1,0(t0)
80001820:	00008067          	ret
80001824:	00008413          	mv	s0,ra
80001828:	010000ef          	jal	0x80001838
8000182c:	00000297          	auipc	t0,0x0
80001830:	00509863          	bne	ra,t0,0x80001840
80001834:	0280006f          	j	0x8000185c
80001838:	00400313          	li	t1,4
8000183c:	00008067          	ret
80001840:	000fe297          	auipc	t0,0xfe
80001844:	7c428293          	addi	t0,t0,1988 # 0x80100004
80001848:	0002a303          	lw	t1,0(t0)
8000184c:	00130313          	addi	t1,t1,1
80001850:	0062a023          	sw	t1,0(t0)
80001854:	00040093          	mv	ra,s0
80001858:	00008067          	ret
8000185c:	000fe297          	auipc	t0,0xfe
80001860:	7a428293          	addi	t0,t0,1956 # 0x80100000
80001864:	0002a303          	lw	t1,0(t0)
80001868:	00130313          	addi	t1,t1,1
8000186c:	0062a023          	sw	t1,0(t0)
80001870:	00040093          	mv	ra,s0
80001874:	00008067          	ret
80001878:	000fe297          	auipc	t0,0xfe
8000187c:	79028293          	addi	t0,t0,1936 # 0x80100008
80001880:	00228303          	lb	t1,2(t0)
80001884:	03400393          	li	t2,52
80001888:	02731463          	bne	t1,t2,0x800018b0
8000188c:	00028303          	lb	t1,0(t0)
80001890:	f8800393          	li	t2,-120
80001894:	00731e63          	bne	t1,t2,0x800018b0
80001898:	000fe297          	auipc	t0,0xfe
8000189c:	76828293          	addi	t0,t0,1896 # 0x80100000
800018a0:	0002a303          	lw	t1,0(t0)
800018a4:	00130313          	addi	t1,t1,1
800018a8:	0062a023          	sw	t1,0(t0)
800018ac:	00008067          	ret
800018b0:	000fe297          	auipc	t0,0xfe
800018b4:	75428293          	addi	t0,t0,1876 # 0x80100004
800018b8:	0002a303          	lw	t1,0(t0)
800018bc:	00130313          	addi	t1,t1,1
800018c0:	0062a023          	sw	t1,0(t0)
800018c4:	00008067          	ret
800018c8:	000fe297          	auipc	t0,0xfe
800018cc:	74028293          	addi	t0,t0,1856 # 0x80100008
800018d0:	00429303          	lh	t1,4(t0)
800018d4:	ffffb3b7          	lui	t2,0xffffb
800018d8:	bcd38393          	addi	t2,t2,-1075 # 0xffffabcd
800018dc:	02731663          	bne	t1,t2,0x80001908
800018e0:	00629303          	lh	t1,6(t0)
800018e4:	000013b7          	lui	t2,0x1
800018e8:	23438393          	addi	t2,t2,564 # 0x1234
800018ec:	00731e63          	bne	t1,t2,0x80001908
800018f0:	000fe297          	auipc	t0,0xfe
800018f4:	71028293          	addi	t0,t0,1808 # 0x80100000
800018f8:	0002a303          	lw	t1,0(t0)
800018fc:	00130313          	addi	t1,t1,1
80001900:	0062a023          	sw	t1,0(t0)
80001904:	00008067          	ret
80001908:	000fe297          	auipc	t0,0xfe
8000190c:	6fc28293          	addi	t0,t0,1788 # 0x80100004
80001910:	0002a303          	lw	t1,0(t0)
80001914:	00130313          	addi	t1,t1,1
80001918:	0062a023          	sw	t1,0(t0)
8000191c:	00008067          	ret
80001920:	000fe297          	auipc	t0,0xfe
80001924:	6e828293          	addi	t0,t0,1768 # 0x80100008
80001928:	0082a303          	lw	t1,8(t0)
8000192c:	556673b7          	lui	t2,0x55667
80001930:	78838393          	addi	t2,t2,1928 # 0x55667788
80001934:	00731e63          	bne	t1,t2,0x80001950
80001938:	000fe297          	auipc	t0,0xfe
8000193c:	6c828293          	addi	t0,t0,1736 # 0x80100000
80001940:	0002a303          	lw	t1,0(t0)
80001944:	00130313          	addi	t1,t1,1
80001948:	0062a023          	sw	t1,0(t0)
8000194c:	00008067          	ret
80001950:	000fe297          	auipc	t0,0xfe
80001954:	6b428293          	addi	t0,t0,1716 # 0x80100004
80001958:	0002a303          	lw	t1,0(t0)
8000195c:	00130313          	addi	t1,t1,1
80001960:	0062a023          	sw	t1,0(t0)
80001964:	00008067          	ret
80001968:	000fe297          	auipc	t0,0xfe
8000196c:	6a028293          	addi	t0,t0,1696 # 0x80100008
80001970:	07f00313          	li	t1,127
80001974:	00628623          	sb	t1,12(t0)
80001978:	00c28383          	lb	t2,12(t0)
8000197c:	07f00e13          	li	t3,127
80001980:	05c39c63          	bne	t2,t3,0x800019d8
80001984:	07f00313          	li	t1,127
80001988:	006286a3          	sb	t1,13(t0)
8000198c:	00d28383          	lb	t2,13(t0)
80001990:	07f00e13          	li	t3,127
80001994:	05c39263          	bne	t2,t3,0x800019d8
80001998:	07f00313          	li	t1,127
8000199c:	00628723          	sb	t1,14(t0)
800019a0:	00e28383          	lb	t2,14(t0)
800019a4:	07f00e13          	li	t3,127
800019a8:	03c39863          	bne	t2,t3,0x800019d8
800019ac:	07f00313          	li	t1,127
800019b0:	006287a3          	sb	t1,15(t0)
800019b4:	00f28383          	lb	t2,15(t0)
800019b8:	07f00e13          	li	t3,127
800019bc:	01c39e63          	bne	t2,t3,0x800019d8
800019c0:	000fe297          	auipc	t0,0xfe
800019c4:	64028293          	addi	t0,t0,1600 # 0x80100000
800019c8:	0002a303          	lw	t1,0(t0)
800019cc:	00130313          	addi	t1,t1,1
800019d0:	0062a023          	sw	t1,0(t0)
800019d4:	00008067          	ret
800019d8:	000fe297          	auipc	t0,0xfe
800019dc:	62c28293          	addi	t0,t0,1580 # 0x80100004
800019e0:	0002a303          	lw	t1,0(t0)
800019e4:	00130313          	addi	t1,t1,1
800019e8:	0062a023          	sw	t1,0(t0)
800019ec:	00008067          	ret
800019f0:	000fe297          	auipc	t0,0xfe
800019f4:	61828293          	addi	t0,t0,1560 # 0x80100008
800019f8:	00008337          	lui	t1,0x8
800019fc:	00130313          	addi	t1,t1,1 # 0x8001
80001a00:	00629823          	sh	t1,16(t0)
80001a04:	01029383          	lh	t2,16(t0)
80001a08:	ffff8e37          	lui	t3,0xffff8
80001a0c:	001e0e13          	addi	t3,t3,1 # 0xffff8001
80001a10:	03c39a63          	bne	t2,t3,0x80001a44
80001a14:	10100313          	li	t1,257
80001a18:	00629923          	sh	t1,18(t0)
80001a1c:	0102a383          	lw	t2,16(t0)
80001a20:	01018e37          	lui	t3,0x1018
80001a24:	001e0e13          	addi	t3,t3,1 # 0x1018001
80001a28:	01c39e63          	bne	t2,t3,0x80001a44
80001a2c:	000fe297          	auipc	t0,0xfe
80001a30:	5d428293          	addi	t0,t0,1492 # 0x80100000
80001a34:	0002a303          	lw	t1,0(t0)
80001a38:	00130313          	addi	t1,t1,1
80001a3c:	0062a023          	sw	t1,0(t0)
80001a40:	00008067          	ret
80001a44:	000fe297          	auipc	t0,0xfe
80001a48:	5c028293          	addi	t0,t0,1472 # 0x80100004
80001a4c:	0002a303          	lw	t1,0(t0)
80001a50:	00130313          	addi	t1,t1,1
80001a54:	0062a023          	sw	t1,0(t0)
80001a58:	00008067          	ret
80001a5c:	000fe297          	auipc	t0,0xfe
80001a60:	5ac28293          	addi	t0,t0,1452 # 0x80100008
80001a64:	0142c303          	lbu	t1,20(t0)
80001a68:	0ff00393          	li	t2,255
80001a6c:	02731463          	bne	t1,t2,0x80001a94
80001a70:	0152c303          	lbu	t1,21(t0)
80001a74:	00000393          	li	t2,0
80001a78:	00731e63          	bne	t1,t2,0x80001a94
80001a7c:	000fe297          	auipc	t0,0xfe
80001a80:	58428293          	addi	t0,t0,1412 # 0x80100000
80001a84:	0002a303          	lw	t1,0(t0)
80001a88:	00130313          	addi	t1,t1,1
80001a8c:	0062a023          	sw	t1,0(t0)
80001a90:	00008067          	ret
80001a94:	000fe297          	auipc	t0,0xfe
80001a98:	57028293          	addi	t0,t0,1392 # 0x80100004
80001a9c:	0002a303          	lw	t1,0(t0)
80001aa0:	00130313          	addi	t1,t1,1
80001aa4:	0062a023          	sw	t1,0(t0)
80001aa8:	00008067          	ret
80001aac:	000fe297          	auipc	t0,0xfe
80001ab0:	55c28293          	addi	t0,t0,1372 # 0x80100008
80001ab4:	0142d303          	lhu	t1,20(t0)
80001ab8:	0ff00393          	li	t2,255
80001abc:	02731663          	bne	t1,t2,0x80001ae8
80001ac0:	0162d303          	lhu	t1,22(t0)
80001ac4:	000103b7          	lui	t2,0x10
80001ac8:	f0038393          	addi	t2,t2,-256 # 0xff00
80001acc:	00731e63          	bne	t1,t2,0x80001ae8
80001ad0:	000fe297          	auipc	t0,0xfe
80001ad4:	53028293          	addi	t0,t0,1328 # 0x80100000
80001ad8:	0002a303          	lw	t1,0(t0)
80001adc:	00130313          	addi	t1,t1,1
80001ae0:	0062a023          	sw	t1,0(t0)
80001ae4:	00008067          	ret
80001ae8:	000fe297          	auipc	t0,0xfe
80001aec:	51c28293          	addi	t0,t0,1308 # 0x80100004
80001af0:	0002a303          	lw	t1,0(t0)
80001af4:	00130313          	addi	t1,t1,1
80001af8:	0062a023          	sw	t1,0(t0)
80001afc:	00008067          	ret
80001b00:	00500293          	li	t0,5
80001b04:	00500313          	li	t1,5
80001b08:	00628463          	beq	t0,t1,0x80001b10
80001b0c:	0280006f          	j	0x80001b34
80001b10:	00100293          	li	t0,1
80001b14:	00200313          	li	t1,2
80001b18:	00628e63          	beq	t0,t1,0x80001b34
80001b1c:	000fe297          	auipc	t0,0xfe
80001b20:	4e428293          	addi	t0,t0,1252 # 0x80100000
80001b24:	0002a303          	lw	t1,0(t0)
80001b28:	00130313          	addi	t1,t1,1
80001b2c:	0062a023          	sw	t1,0(t0)
80001b30:	00008067          	ret
80001b34:	000fe297          	auipc	t0,0xfe
80001b38:	4d028293          	addi	t0,t0,1232 # 0x80100004
80001b3c:	0002a303          	lw	t1,0(t0)
80001b40:	00130313          	addi	t1,t1,1
80001b44:	0062a023          	sw	t1,0(t0)
80001b48:	00008067          	ret
80001b4c:	00100293          	li	t0,1
80001b50:	00200313          	li	t1,2
80001b54:	00629463          	bne	t0,t1,0x80001b5c
80001b58:	0280006f          	j	0x80001b80
80001b5c:	00500293          	li	t0,5
80001b60:	00500313          	li	t1,5
80001b64:	00629e63          	bne	t0,t1,0x80001b80
80001b68:	000fe297          	auipc	t0,0xfe
80001b6c:	49828293          	addi	t0,t0,1176 # 0x80100000
80001b70:	0002a303          	lw	t1,0(t0)
80001b74:	00130313          	addi	t1,t1,1
80001b78:	0062a023          	sw	t1,0(t0)
80001b7c:	00008067          	ret
80001b80:	000fe297          	auipc	t0,0xfe
80001b84:	48428293          	addi	t0,t0,1156 # 0x80100004
80001b88:	0002a303          	lw	t1,0(t0)
80001b8c:	00130313          	addi	t1,t1,1
80001b90:	0062a023          	sw	t1,0(t0)
80001b94:	00008067          	ret
80001b98:	fff00293          	li	t0,-1
80001b9c:	00000313          	li	t1,0
80001ba0:	0062c463          	blt	t0,t1,0x80001ba8
80001ba4:	0280006f          	j	0x80001bcc
80001ba8:	00500293          	li	t0,5
80001bac:	00500313          	li	t1,5
80001bb0:	0062ce63          	blt	t0,t1,0x80001bcc
80001bb4:	000fe297          	auipc	t0,0xfe
80001bb8:	44c28293          	addi	t0,t0,1100 # 0x80100000
80001bbc:	0002a303          	lw	t1,0(t0)
80001bc0:	00130313          	addi	t1,t1,1
80001bc4:	0062a023          	sw	t1,0(t0)
80001bc8:	00008067          	ret
80001bcc:	000fe297          	auipc	t0,0xfe
80001bd0:	43828293          	addi	t0,t0,1080 # 0x80100004
80001bd4:	0002a303          	lw	t1,0(t0)
80001bd8:	00130313          	addi	t1,t1,1
80001bdc:	0062a023          	sw	t1,0(t0)
80001be0:	00008067          	ret
80001be4:	00100293          	li	t0,1
80001be8:	fff00313          	li	t1,-1
80001bec:	0062d463          	bge	t0,t1,0x80001bf4
80001bf0:	0280006f          	j	0x80001c18
80001bf4:	00100293          	li	t0,1
80001bf8:	00500313          	li	t1,5
80001bfc:	0062de63          	bge	t0,t1,0x80001c18
80001c00:	000fe297          	auipc	t0,0xfe
80001c04:	40028293          	addi	t0,t0,1024 # 0x80100000
80001c08:	0002a303          	lw	t1,0(t0)
80001c0c:	00130313          	addi	t1,t1,1
80001c10:	0062a023          	sw	t1,0(t0)
80001c14:	00008067          	ret
80001c18:	000fe297          	auipc	t0,0xfe
80001c1c:	3ec28293          	addi	t0,t0,1004 # 0x80100004
80001c20:	0002a303          	lw	t1,0(t0)
80001c24:	00130313          	addi	t1,t1,1
80001c28:	0062a023          	sw	t1,0(t0)
80001c2c:	00008067          	ret
80001c30:	fff00293          	li	t0,-1
80001c34:	00500313          	li	t1,5
80001c38:	00536463          	bltu	t1,t0,0x80001c40
80001c3c:	0280006f          	j	0x80001c64
80001c40:	00500293          	li	t0,5
80001c44:	00500313          	li	t1,5
80001c48:	0062ee63          	bltu	t0,t1,0x80001c64
80001c4c:	000fe297          	auipc	t0,0xfe
80001c50:	3b428293          	addi	t0,t0,948 # 0x80100000
80001c54:	0002a303          	lw	t1,0(t0)
80001c58:	00130313          	addi	t1,t1,1
80001c5c:	0062a023          	sw	t1,0(t0)
80001c60:	00008067          	ret
80001c64:	000fe297          	auipc	t0,0xfe
80001c68:	3a028293          	addi	t0,t0,928 # 0x80100004
80001c6c:	0002a303          	lw	t1,0(t0)
80001c70:	00130313          	addi	t1,t1,1
80001c74:	0062a023          	sw	t1,0(t0)
80001c78:	00008067          	ret
80001c7c:	00500293          	li	t0,5
80001c80:	fff00313          	li	t1,-1
80001c84:	00537c63          	bgeu	t1,t0,0x80001c9c
80001c88:	02c0006f          	j	0x80001cb4
80001c8c:	00500293          	li	t0,5
80001c90:	00500313          	li	t1,5
80001c94:	0062f463          	bgeu	t0,t1,0x80001c9c
80001c98:	01c0006f          	j	0x80001cb4
80001c9c:	000fe297          	auipc	t0,0xfe
80001ca0:	36428293          	addi	t0,t0,868 # 0x80100000
80001ca4:	0002a303          	lw	t1,0(t0)
80001ca8:	00130313          	addi	t1,t1,1
80001cac:	0062a023          	sw	t1,0(t0)
80001cb0:	00008067          	ret
80001cb4:	000fe297          	auipc	t0,0xfe
80001cb8:	35028293          	addi	t0,t0,848 # 0x80100004
80001cbc:	0002a303          	lw	t1,0(t0)
80001cc0:	00130313          	addi	t1,t1,1
80001cc4:	0062a023          	sw	t1,0(t0)
80001cc8:	00008067          	ret
80001ccc:	00008413          	mv	s0,ra
80001cd0:	00000297          	auipc	t0,0x0
80001cd4:	02028293          	addi	t0,t0,32 # 0x80001cf0
80001cd8:	000280e7          	jalr	t0
80001cdc:	00000e17          	auipc	t3,0x0
80001ce0:	00800313          	li	t1,8
80001ce4:	00639a63          	bne	t2,t1,0x80001cf8
80001ce8:	01c09863          	bne	ra,t3,0x80001cf8
80001cec:	0280006f          	j	0x80001d14
80001cf0:	00800393          	li	t2,8
80001cf4:	00008067          	ret
80001cf8:	000fe297          	auipc	t0,0xfe
80001cfc:	30c28293          	addi	t0,t0,780 # 0x80100004
80001d00:	0002a303          	lw	t1,0(t0)
80001d04:	00130313          	addi	t1,t1,1
80001d08:	0062a023          	sw	t1,0(t0)
80001d0c:	00040093          	mv	ra,s0
80001d10:	00008067          	ret
80001d14:	000fe297          	auipc	t0,0xfe
80001d18:	2ec28293          	addi	t0,t0,748 # 0x80100000
80001d1c:	0002a303          	lw	t1,0(t0)
80001d20:	00130313          	addi	t1,t1,1
80001d24:	0062a023          	sw	t1,0(t0)
80001d28:	00040093          	mv	ra,s0
80001d2c:	00008067          	ret
80001d30:	06054063          	bltz	a0,0x80001d90
80001d34:	0605c663          	bltz	a1,0x80001da0
80001d38:	00058613          	mv	a2,a1
80001d3c:	00050593          	mv	a1,a0
80001d40:	fff00513          	li	a0,-1
80001d44:	02060c63          	beqz	a2,0x80001d7c
80001d48:	00100693          	li	a3,1
80001d4c:	00b67a63          	bgeu	a2,a1,0x80001d60
80001d50:	00c05863          	blez	a2,0x80001d60
80001d54:	00161613          	slli	a2,a2,0x1
80001d58:	00169693          	slli	a3,a3,0x1
80001d5c:	feb66ae3          	bltu	a2,a1,0x80001d50
80001d60:	00000513          	li	a0,0
80001d64:	00c5e663          	bltu	a1,a2,0x80001d70
80001d68:	40c585b3          	sub	a1,a1,a2
80001d6c:	00d56533          	or	a0,a0,a3
80001d70:	0016d693          	srli	a3,a3,0x1
80001d74:	00165613          	srli	a2,a2,0x1
80001d78:	fe0696e3          	bnez	a3,0x80001d64
80001d7c:	00008067          	ret
80001d80:	00008293          	mv	t0,ra
80001d84:	fb5ff0ef          	jal	0x80001d38
80001d88:	00058513          	mv	a0,a1
80001d8c:	00028067          	jr	t0
80001d90:	40a00533          	neg	a0,a0
80001d94:	00b04863          	bgtz	a1,0x80001da4
80001d98:	40b005b3          	neg	a1,a1
80001d9c:	f9dff06f          	j	0x80001d38
80001da0:	40b005b3          	neg	a1,a1
80001da4:	00008293          	mv	t0,ra
80001da8:	f91ff0ef          	jal	0x80001d38
80001dac:	40a00533          	neg	a0,a0
80001db0:	00028067          	jr	t0
80001db4:	00008293          	mv	t0,ra
80001db8:	0005ca63          	bltz	a1,0x80001dcc
80001dbc:	00054c63          	bltz	a0,0x80001dd4
80001dc0:	f79ff0ef          	jal	0x80001d38
80001dc4:	00058513          	mv	a0,a1
80001dc8:	00028067          	jr	t0
80001dcc:	40b005b3          	neg	a1,a1
80001dd0:	fe0558e3          	bgez	a0,0x80001dc0
80001dd4:	40a00533          	neg	a0,a0
80001dd8:	f61ff0ef          	jal	0x80001d38
80001ddc:	40b00533          	neg	a0,a1
80001de0:	00028067          	jr	t0
80001de4:	00050613          	mv	a2,a0
80001de8:	00000513          	li	a0,0
80001dec:	0015f693          	andi	a3,a1,1
80001df0:	00068463          	beqz	a3,0x80001df8
80001df4:	00c50533          	add	a0,a0,a2
80001df8:	0015d593          	srli	a1,a1,0x1
80001dfc:	00161613          	slli	a2,a2,0x1
80001e00:	fe0596e3          	bnez	a1,0x80001dec
80001e04:	00008067          	ret
